#
# This is a valgrind suppression file that should be used when using valgrind.
#
#  Here's an example of running valgrind:
#
#   cd python/dist/src
#   valgrind --tool=memcheck --suppressions=Misc/valgrind-python.supp \
#       ./python -E -tt ./Lib/test/regrtest.py -u bsddb,network
#
# You must edit Objects/obmalloc.c and uncomment Py_USING_MEMORY_DEBUGGER
# to use the preferred suppressions with Py_ADDRESS_IN_RANGE.
#
# If you do not want to recompile Python, you can uncomment
# suppressions for PyObject_Free and PyObject_Realloc.
#
# See Misc/README.valgrind for more information.

# all tool names: Addrcheck,Memcheck,cachegrind,helgrind,massif
{
   ADDRESS_IN_RANGE/Invalid read of size 4
   Memcheck:Addr4
   fun:Py_ADDRESS_IN_RANGE
}

{
   ADDRESS_IN_RANGE/Invalid read of size 4
   Memcheck:Value4
   fun:Py_ADDRESS_IN_RANGE
}

{
   ADDRESS_IN_RANGE/Invalid read of size 8 (x86_64 aka amd64)
   Memcheck:Value8
   fun:Py_ADDRESS_IN_RANGE
}

{
   ADDRESS_IN_RANGE/Conditional jump or move depends on uninitialised value
   Memcheck:Cond
   fun:Py_ADDRESS_IN_RANGE
}

#
# Leaks (including possible leaks)
#    Hmmm, I wonder if this masks some real leaks.  I think it does.
#    Will need to fix that.
#

{
   Suppress leaking the GIL.  Happens once per process, see comment in ceval.c.
   Memcheck:Leak
   fun:malloc
   fun:PyThread_allocate_lock
   fun:PyEval_InitThreads
}

{
   Suppress leaking the GIL after a fork.
   Memcheck:Leak
   fun:malloc
   fun:PyThread_allocate_lock
   fun:PyEval_ReInitThreads
}

{
   Suppress leaking the autoTLSkey.  This looks like it shouldn't leak though.
   Memcheck:Leak
   fun:malloc
   fun:PyThread_create_key
   fun:_PyGILState_Init
   fun:Py_InitializeEx
   fun:Py_Main
}

{
   Hmmm, is this a real leak or like the GIL?
   Memcheck:Leak
   fun:malloc
   fun:PyThread_ReInitTLS
}

{
   Handle PyMalloc confusing valgrind (possibly leaked)
   Memcheck:Leak
   fun:realloc
   fun:_PyObject_GC_Resize
   fun:COMMENT_THIS_LINE_TO_DISABLE_LEAK_WARNING
}

{
   Handle PyMalloc confusing valgrind (possibly leaked)
   Memcheck:Leak
   fun:malloc
   fun:_PyObject_GC_New
   fun:COMMENT_THIS_LINE_TO_DISABLE_LEAK_WARNING
}

{
   Handle PyMalloc confusing valgrind (possibly leaked)
   Memcheck:Leak
   fun:malloc
   fun:_PyObject_GC_NewVar
   fun:COMMENT_THIS_LINE_TO_DISABLE_LEAK_WARNING
}

#
# Non-python specific leaks
#

{
   Handle pthread issue (possibly leaked)
   Memcheck:Leak
   fun:calloc
   fun:allocate_dtv
   fun:_dl_allocate_tls_storage
   fun:_dl_allocate_tls
}

{
   Handle pthread issue (possibly leaked)
   Memcheck:Leak
   fun:memalign
   fun:_dl_allocate_tls_storage
   fun:_dl_allocate_tls
}

{
   ADDRESS_IN_RANGE/Invalid read of size 4
   Memcheck:Addr4
   fun:PyObject_Free
}

{
   ADDRESS_IN_RANGE/Invalid read of size 4
   Memcheck:Value4
   fun:PyObject_Free
}

{
   ADDRESS_IN_RANGE/Conditional jump or move depends on uninitialised value
   Memcheck:Cond
   fun:PyObject_Free
}

{
   ADDRESS_IN_RANGE/Invalid read of size 4
   Memcheck:Addr4
   fun:PyObject_Realloc
}

{
   ADDRESS_IN_RANGE/Invalid read of size 4
   Memcheck:Value4
   fun:PyObject_Realloc
}

{
   ADDRESS_IN_RANGE/Conditional jump or move depends on uninitialised value
   Memcheck:Cond
   fun:PyObject_Realloc
}

{
   ADDRESS_IN_RANGE/Invalid read of size 8
   Memcheck:Addr8
   fun:PyObject_Free
}

{
   ADDRESS_IN_RANGE/Invalid read of size 8
   Memcheck:Value8
   fun:PyObject_Free
}

{
   ADDRESS_IN_RANGE/Conditional jump or move depends on uninitialised value
   Memcheck:Cond
   fun:PyObject_Free
}

{
   ADDRESS_IN_RANGE/Invalid read of size 8
   Memcheck:Addr8
   fun:PyObject_Realloc
}

{
   ADDRESS_IN_RANGE/Invalid read of size 8
   Memcheck:Value8
   fun:PyObject_Realloc
}

###
### All the suppressions below are for errors that occur within libraries
### that Python uses.  The problems to not appear to be related to Python's
### use of the libraries.
###

{
   Generic ubuntu ld problems
   Memcheck:Addr8
   obj:/lib/ld-2.4.so
   obj:/lib/ld-2.4.so
   obj:/lib/ld-2.4.so
   obj:/lib/ld-2.4.so
}

{
   Generic gentoo ld problems
   Memcheck:Cond
   obj:/lib/ld-2.3.4.so
   obj:/lib/ld-2.3.4.so
   obj:/lib/ld-2.3.4.so
   obj:/lib/ld-2.3.4.so
}

{
   DBM problems, see test_dbm
   Memcheck:Param
   write(buf)
   fun:write
   obj:/usr/lib/libdb1.so.2
   obj:/usr/lib/libdb1.so.2
   obj:/usr/lib/libdb1.so.2
   obj:/usr/lib/libdb1.so.2
   fun:dbm_close
}

{
   DBM problems, see test_dbm
   Memcheck:Value8
   fun:memmove
   obj:/usr/lib/libdb1.so.2
   obj:/usr/lib/libdb1.so.2
   obj:/usr/lib/libdb1.so.2
   obj:/usr/lib/libdb1.so.2
   fun:dbm_store
   fun:dbm_ass_sub
}

{
   DBM problems, see test_dbm
   Memcheck:Cond
   obj:/usr/lib/libdb1.so.2
   obj:/usr/lib/libdb1.so.2
   obj:/usr/lib/libdb1.so.2
   fun:dbm_store
   fun:dbm_ass_sub
}

{
   DBM problems, see test_dbm
   Memcheck:Cond
   fun:memmove
   obj:/usr/lib/libdb1.so.2
   obj:/usr/lib/libdb1.so.2
   obj:/usr/lib/libdb1.so.2
   obj:/usr/lib/libdb1.so.2
   fun:dbm_store
   fun:dbm_ass_sub
}

{
   GDBM problems, see test_gdbm
   Memcheck:Param
   write(buf)
   fun:write
   fun:gdbm_open

}

{
   ZLIB problems, see test_gzip
   Memcheck:Cond
   obj:/lib/libz.so.1.2.3
   obj:/lib/libz.so.1.2.3
   fun:deflate
}

{
   Avoid problems w/readline doing a putenv and leaking on exit
   Memcheck:Leak
   fun:malloc
   fun:xmalloc
   fun:sh_set_lines_and_columns
   fun:_rl_get_screen_size
   fun:_rl_init_terminal_io
   obj:/lib/libreadline.so.4.3
   fun:rl_initialize
}

###
### These occur from somewhere within the SSL, when running
###  test_socket_sll.  They are too general to leave on by default.
###
###{
###   somewhere in SSL stuff
###   Memcheck:Cond
###   fun:memset
###}
###{
###   somewhere in SSL stuff
###   Memcheck:Value4
###   fun:memset
###}
###
###{
###   somewhere in SSL stuff
###   Memcheck:Cond
###   fun:MD5_Update
###}
###
###{
###   somewhere in SSL stuff
###   Memcheck:Value4
###   fun:MD5_Update
###}

#
# All of these problems come from using test_socket_ssl
#
{
   from test_socket_ssl
   Memcheck:Cond
   fun:BN_bin2bn
}

{
   from test_socket_ssl
   Memcheck:Cond
   fun:BN_num_bits_word
}

{
   from test_socket_ssl
   Memcheck:Value4
   fun:BN_num_bits_word
}

{
   from test_socket_ssl
   Memcheck:Cond
   fun:BN_mod_exp_mont_word
}

{
   from test_socket_ssl
   Memcheck:Cond
   fun:BN_mod_exp_mont
}

{
   from test_socket_ssl
   Memcheck:Param
   write(buf)
   fun:write
   obj:/usr/lib/libcrypto.so.0.9.7
}

{
   from test_socket_ssl
   Memcheck:Cond
   fun:RSA_verify
}

{
   from test_socket_ssl
   Memcheck:Value4
   fun:RSA_verify
}

{
   from test_socket_ssl
   Memcheck:Value4
   fun:DES_set_key_unchecked
}

{
   from test_socket_ssl
   Memcheck:Value4
   fun:DES_encrypt2
}

{
   from test_socket_ssl
   Memcheck:Cond
   obj:/usr/lib/libssl.so.0.9.7
}

{
   from test_socket_ssl
   Memcheck:Value4
   obj:/usr/lib/libssl.so.0.9.7
}

{
   from test_socket_ssl
   Memcheck:Cond
   fun:BUF_MEM_grow_clean
}

{
   from test_socket_ssl
   Memcheck:Cond
   fun:memcpy
   fun:ssl3_read_bytes
}

{
   from test_socket_ssl
   Memcheck:Cond
   fun:SHA1_Update
}

{
   from test_socket_ssl
   Memcheck:Value4
   fun:SHA1_Update
}

{
   Boost Python memort leak
   Memcheck:Leak
   fun:malloc
   fun:_Znwm
   fun:_ZN5boost6python6detail17make_function_auxIPFvP7_objectENS0_21default_call_policiesENS_3mpl7vector2IvS4_EEN4mpl_4int_ILi0EEEEENS0_3api6objectET_RKT0_RKT1_RKSt4pairIPKNS1_7keywordESQ_ET2_
   fun:_ZN5boost6python6detail12def_init_auxINS0_6class_IN3psi6OEPropENS_10shared_ptrIS5_EENS1_13not_specifiedES8_EENS0_21default_call_policiesENS_3mpl7vector0IN4mpl_2naEEENSB_4sizeISF_EEEEvRT_RKT1_T2_RKT0_PKcRKSt4pairIPKNS1_7keywordESW_E
   fun:_ZN5boost6python6class_IN3psi6OEPropENS_10shared_ptrIS3_EENS0_6detail13not_specifiedES7_EC2EPKcSA_
   fun:_Z13export_oepropv
   fun:_Z18init_module_PsiModv
   fun:_ZN5boost6python21handle_exception_implENS_9function0IvEE
   fun:_ZN5boost6python16handle_exceptionIPFvvEEEbT_
   fun:_ZN5boost6python6detail11init_moduleEPKcPFvvE
   fun:_PyImport_FixupExtension
   fun:_PyImport_FixupExtension
}
{
   Boost Python memort leak
   Memcheck:Leak
   fun:malloc
   fun:_Znwm
   fun:_ZN5boost6python6detail17make_function_auxIPFvP7_objectENS0_21default_call_policiesENS_3mpl7vector2IvS4_EEN4mpl_4int_ILi0EEEEENS0_3api6objectET_RKT0_RKT1_RKSt4pairIPKNS1_7keywordESQ_ET2_
   fun:_ZN5boost6python6detail12def_init_auxINS0_6class_IN3psi8GridPropENS_10shared_ptrIS5_EENS1_13not_specifiedES8_EENS0_21default_call_policiesENS_3mpl7vector0IN4mpl_2naEEENSB_4sizeISF_EEEEvRT_RKT1_T2_RKT0_PKcRKSt4pairIPKNS1_7keywordESW_E
   fun:_ZN5boost6python6class_IN3psi8GridPropENS_10shared_ptrIS3_EENS0_6detail13not_specifiedES7_EC2EPKcSA_
   fun:_Z13export_oepropv
   fun:_Z18init_module_PsiModv
   fun:_ZN5boost6python21handle_exception_implENS_9function0IvEE
   fun:_ZN5boost6python16handle_exceptionIPFvvEEEbT_
   fun:_ZN5boost6python6detail11init_moduleEPKcPFvvE
   fun:_PyImport_FixupExtension
   fun:_PyImport_FixupExtension
}
{
   Boost Python memort leak
   Memcheck:Leak
   fun:malloc
   fun:_Znwm
   fun:_ZN5boost6python6detail17make_function_auxIPFvP7_objectENS0_21default_call_policiesENS_3mpl7vector2IvS4_EEN4mpl_4int_ILi0EEEEENS0_3api6objectET_RKT0_RKT1_RKSt4pairIPKNS1_7keywordESQ_ET2_
   fun:_ZN5boost6python6detail12def_init_auxINS0_6class_ISt6vectorINS_10shared_ptrIN3psi6MatrixEEESaIS8_EENS1_13not_specifiedESB_SB_EENS0_21default_call_policiesENS_3mpl7vector0IN4mpl_2naEEENSE_4sizeISI_EEEEvRT_RKT1_T2_RKT0_PKcRKSt4pairIPKNS1_7keywordESZ_E
   fun:_ZN5boost6python6class_ISt6vectorINS_10shared_ptrIN3psi6MatrixEEESaIS6_EENS0_6detail13not_specifiedESA_SA_EC2EPKcSD_
   fun:_Z12export_mintsv
   fun:_Z18init_module_PsiModv
   fun:_ZN5boost6python21handle_exception_implENS_9function0IvEE
   fun:_ZN5boost6python16handle_exceptionIPFvvEEEbT_
   fun:_ZN5boost6python6detail11init_moduleEPKcPFvvE
   fun:_PyImport_FixupExtension
   fun:_PyImport_FixupExtension
}
{
   Boost Python memort leak
   Memcheck:Leak
   fun:malloc
   fun:_Znwm
   fun:_ZN5boost6python6detail17make_function_auxIPFmRSt6vectorINS_10shared_ptrIN3psi6MatrixEEESaIS7_EEENS0_21default_call_policiesENS_3mpl7vector2ImSA_EEN4mpl_4int_ILi0EEEEENS0_3api6objectET_RKT0_RKT1_RKSt4pairIPKNS1_7keywordESW_ET2_
   fun:_ZN5boost6python6class_ISt6vectorINS_10shared_ptrIN3psi6MatrixEEESaIS6_EENS0_6detail13not_specifiedESA_SA_E8def_implIS8_PFmRS8_ENS9_10def_helperIPKcSA_SA_SA_EEEEvPT_SI_T0_RKT1_z
   fun:_ZNK5boost6python14indexing_suiteISt6vectorINS_10shared_ptrIN3psi6MatrixEEESaIS6_EENS0_6detail29final_vector_derived_policiesIS8_Lb1EEELb1ELb0ES6_mS6_E5visitINS0_6class_IS8_NS9_13not_specifiedESF_SF_EEEEvRT_
   fun:_Z12export_mintsv
   fun:_Z18init_module_PsiModv
   fun:_ZN5boost6python21handle_exception_implENS_9function0IvEE
   fun:_ZN5boost6python16handle_exceptionIPFvvEEEbT_
   fun:_ZN5boost6python6detail11init_moduleEPKcPFvvE
   fun:_PyImport_FixupExtension
   fun:_PyImport_FixupExtension
}
{
   Boost Python memort leak
   Memcheck:Leak
   fun:malloc
   fun:_Znwm
   fun:_ZN5boost6python6detail17make_function_auxIPFvRSt6vectorINS_10shared_ptrIN3psi6MatrixEEESaIS7_EEP7_objectSC_ENS0_21default_call_policiesENS_3mpl7vector4IvSA_SC_SC_EEN4mpl_4int_ILi0EEEEENS0_3api6objectET_RKT0_RKT1_RKSt4pairIPKNS1_7keywordESY_ET2_
   fun:_ZN5boost6python6class_ISt6vectorINS_10shared_ptrIN3psi6MatrixEEESaIS6_EENS0_6detail13not_specifiedESA_SA_E8def_implIS8_PFvRS8_P7_objectSF_ENS9_10def_helperIPKcSA_SA_SA_EEEEvPT_SK_T0_RKT1_z
   fun:_ZNK5boost6python14indexing_suiteISt6vectorINS_10shared_ptrIN3psi6MatrixEEESaIS6_EENS0_6detail29final_vector_derived_policiesIS8_Lb1EEELb1ELb0ES6_mS6_E5visitINS0_6class_IS8_NS9_13not_specifiedESF_SF_EEEEvRT_
   fun:_Z12export_mintsv
   fun:_Z18init_module_PsiModv
   fun:_ZN5boost6python21handle_exception_implENS_9function0IvEE
   fun:_ZN5boost6python16handle_exceptionIPFvvEEEbT_
   fun:_ZN5boost6python6detail11init_moduleEPKcPFvvE
   fun:_PyImport_FixupExtension
   fun:_PyImport_FixupExtension
}
{
   Boost Python memort leak
   Memcheck:Leak
   fun:malloc
   fun:_Znwm
   fun:_ZN5boost6python6detail17make_function_auxIPFvRSt6vectorINS_10shared_ptrIN3psi6MatrixEEESaIS7_EEP7_objectENS0_21default_call_policiesENS_3mpl7vector3IvSA_SC_EEN4mpl_4int_ILi0EEEEENS0_3api6objectET_RKT0_RKT1_RKSt4pairIPKNS1_7keywordESY_ET2_
   fun:_ZN5boost6python6class_ISt6vectorINS_10shared_ptrIN3psi6MatrixEEESaIS6_EENS0_6detail13not_specifiedESA_SA_E8def_implIS8_PFvRS8_P7_objectENS9_10def_helperIPKcSA_SA_SA_EEEEvPT_SK_T0_RKT1_z
   fun:_ZNK5boost6python14indexing_suiteISt6vectorINS_10shared_ptrIN3psi6MatrixEEESaIS6_EENS0_6detail29final_vector_derived_policiesIS8_Lb1EEELb1ELb0ES6_mS6_E5visitINS0_6class_IS8_NS9_13not_specifiedESF_SF_EEEEvRT_
   fun:_Z12export_mintsv
   fun:_Z18init_module_PsiModv
   fun:_ZN5boost6python21handle_exception_implENS_9function0IvEE
   fun:_ZN5boost6python16handle_exceptionIPFvvEEEbT_
   fun:_ZN5boost6python6detail11init_moduleEPKcPFvvE
   fun:_PyImport_FixupExtension
   fun:_PyImport_FixupExtension
}
{
   Boost Python memort leak
   Memcheck:Leak
   fun:malloc
   fun:_Znwm
   fun:_ZN5boost6python6detail17make_function_auxIPFNS0_3api6objectENS0_14back_referenceIRSt6vectorINS_10shared_ptrIN3psi6MatrixEEESaISA_EEEEP7_objectENS0_21default_call_policiesENS_3mpl7vector3IS4_SE_SG_EEN4mpl_4int_ILi0EEEEES4_T_RKT0_RKT1_RKSt4pairIPKNS1_7keywordES10_ET2_
   fun:_ZN5boost6python6class_ISt6vectorINS_10shared_ptrIN3psi6MatrixEEESaIS6_EENS0_6detail13not_specifiedESA_SA_E8def_implIS8_PFNS0_3api6objectENS0_14back_referenceIRS8_EEP7_objectENS9_10def_helperIPKcSA_SA_SA_EEEEvPT_SO_T0_RKT1_z
   fun:_ZNK5boost6python14indexing_suiteISt6vectorINS_10shared_ptrIN3psi6MatrixEEESaIS6_EENS0_6detail29final_vector_derived_policiesIS8_Lb1EEELb1ELb0ES6_mS6_E5visitINS0_6class_IS8_NS9_13not_specifiedESF_SF_EEEEvRT_
   fun:_Z12export_mintsv
   fun:_Z18init_module_PsiModv
   fun:_ZN5boost6python21handle_exception_implENS_9function0IvEE
   fun:_ZN5boost6python16handle_exceptionIPFvvEEEbT_
   fun:_ZN5boost6python6detail11init_moduleEPKcPFvvE
   fun:_PyImport_FixupExtension
   fun:_PyImport_FixupExtension
}
{
   Boost Python memort leak
   Memcheck:Leak
   fun:malloc
   fun:_Znwm
   fun:_ZN5boost6python6detail17make_function_auxIPFbRSt6vectorINS_10shared_ptrIN3psi6MatrixEEESaIS7_EEP7_objectENS0_21default_call_policiesENS_3mpl7vector3IbSA_SC_EEN4mpl_4int_ILi0EEEEENS0_3api6objectET_RKT0_RKT1_RKSt4pairIPKNS1_7keywordESY_ET2_
   fun:_ZN5boost6python6class_ISt6vectorINS_10shared_ptrIN3psi6MatrixEEESaIS6_EENS0_6detail13not_specifiedESA_SA_E8def_implIS8_PFbRS8_P7_objectENS9_10def_helperIPKcSA_SA_SA_EEEEvPT_SK_T0_RKT1_z
   fun:_ZNK5boost6python14indexing_suiteISt6vectorINS_10shared_ptrIN3psi6MatrixEEESaIS6_EENS0_6detail29final_vector_derived_policiesIS8_Lb1EEELb1ELb0ES6_mS6_E5visitINS0_6class_IS8_NS9_13not_specifiedESF_SF_EEEEvRT_
   fun:_Z12export_mintsv
   fun:_Z18init_module_PsiModv
   fun:_ZN5boost6python21handle_exception_implENS_9function0IvEE
   fun:_ZN5boost6python16handle_exceptionIPFvvEEEbT_
   fun:_ZN5boost6python6detail11init_moduleEPKcPFvvE
   fun:_PyImport_FixupExtension
   fun:_PyImport_FixupExtension
}
{
   Boost Python memort leak
   Memcheck:Leak
   fun:malloc
   fun:_Znwm
   fun:_ZN5boost6python6detail17make_function_auxIPFvRSt6vectorINS_10shared_ptrIN3psi6MatrixEEESaIS7_EENS0_3api6objectEENS0_21default_call_policiesENS_3mpl7vector3IvSA_SC_EEN4mpl_4int_ILi0EEEEESC_T_RKT0_RKT1_RKSt4pairIPKNS1_7keywordESW_ET2_
   fun:_ZN5boost6python6class_ISt6vectorINS_10shared_ptrIN3psi6MatrixEEESaIS6_EENS0_6detail13not_specifiedESA_SA_E8def_implIS8_PFvRS8_NS0_3api6objectEENS9_10def_helperIPKcSA_SA_SA_EEEEvPT_SK_T0_RKT1_z
   fun:_ZNK5boost6python14indexing_suiteISt6vectorINS_10shared_ptrIN3psi6MatrixEEESaIS6_EENS0_6detail29final_vector_derived_policiesIS8_Lb1EEELb1ELb0ES6_mS6_E5visitINS0_6class_IS8_NS9_13not_specifiedESF_SF_EEEEvRT_
   fun:_Z12export_mintsv
   fun:_Z18init_module_PsiModv
   fun:_ZN5boost6python21handle_exception_implENS_9function0IvEE
   fun:_ZN5boost6python16handle_exceptionIPFvvEEEbT_
   fun:_ZN5boost6python6detail11init_moduleEPKcPFvvE
   fun:_PyImport_FixupExtension
   fun:_PyImport_FixupExtension
}
{
   Boost Python memort leak
   Memcheck:Leak
   fun:malloc
   fun:_Znwm
   fun:_ZN5boost6python6detail17make_function_auxIPFvRSt6vectorINS_10shared_ptrIN3psi6MatrixEEESaIS7_EENS0_3api6objectEENS0_21default_call_policiesENS_3mpl7vector3IvSA_SC_EEN4mpl_4int_ILi0EEEEESC_T_RKT0_RKT1_RKSt4pairIPKNS1_7keywordESW_ET2_
   fun:_ZN5boost6python6class_ISt6vectorINS_10shared_ptrIN3psi6MatrixEEESaIS6_EENS0_6detail13not_specifiedESA_SA_E8def_implIS8_PFvRS8_NS0_3api6objectEENS9_10def_helperIPKcSA_SA_SA_EEEEvPT_SK_T0_RKT1_z
   fun:_ZNK5boost6python14indexing_suiteISt6vectorINS_10shared_ptrIN3psi6MatrixEEESaIS6_EENS0_6detail29final_vector_derived_policiesIS8_Lb1EEELb1ELb0ES6_mS6_E5visitINS0_6class_IS8_NS9_13not_specifiedESF_SF_EEEEvRT_
   fun:_Z12export_mintsv
   fun:_Z18init_module_PsiModv
   fun:_ZN5boost6python21handle_exception_implENS_9function0IvEE
   fun:_ZN5boost6python16handle_exceptionIPFvvEEEbT_
   fun:_ZN5boost6python6detail11init_moduleEPKcPFvvE
   fun:_PyImport_FixupExtension
   fun:_PyImport_FixupExtension
}
{
   Boost Python memort leak
   Memcheck:Leak
   fun:malloc
   fun:_Znwm
   fun:_ZN5boost6python6detail17make_function_auxIPFvP7_objectENS0_21default_call_policiesENS_3mpl7vector2IvS4_EEN4mpl_4int_ILi0EEEEENS0_3api6objectET_RKT0_RKT1_RKSt4pairIPKNS1_7keywordESQ_ET2_
   fun:_ZN5boost6python6detail12def_init_auxINS0_6class_IN3psi6VectorENS_10shared_ptrIS5_EENS1_13not_specifiedES8_EENS0_21default_call_policiesENS_3mpl7vector0IN4mpl_2naEEENSB_4sizeISF_EEEEvRT_RKT1_T2_RKT0_PKcRKSt4pairIPKNS1_7keywordESW_E
   fun:_ZN5boost6python6class_IN3psi6VectorENS_10shared_ptrIS3_EENS0_6detail13not_specifiedES7_EC2EPKcSA_
   fun:_Z12export_mintsv
   fun:_Z18init_module_PsiModv
   fun:_ZN5boost6python21handle_exception_implENS_9function0IvEE
   fun:_ZN5boost6python16handle_exceptionIPFvvEEEbT_
   fun:_ZN5boost6python6detail11init_moduleEPKcPFvvE
   fun:_PyImport_FixupExtension
   fun:_PyImport_FixupExtension
}
{
   Boost Python memort leak
   Memcheck:Leak
   fun:malloc
   fun:_Znwm
   fun:_ZN5boost6python6detail17make_function_auxIPFvP7_objectiENS0_21default_call_policiesENS_3mpl7vector3IvS4_iEEN4mpl_4int_ILi0EEEEENS0_3api6objectET_RKT0_RKT1_RKSt4pairIPKNS1_7keywordESQ_ET2_
   fun:_ZN5boost6python6detail12def_init_auxINS0_6class_IN3psi6VectorENS_10shared_ptrIS5_EENS1_13not_specifiedES8_EENS0_21default_call_policiesENS_3mpl7vector1IiEENSB_4sizeISD_EEEEvRT_RKT1_T2_RKT0_PKcRKSt4pairIPKNS1_7keywordESU_E
   fun:_Z12export_mintsv
   fun:_Z18init_module_PsiModv
   fun:_ZN5boost6python21handle_exception_implENS_9function0IvEE
   fun:_ZN5boost6python16handle_exceptionIPFvvEEEbT_
   fun:_ZN5boost6python6detail11init_moduleEPKcPFvvE
   fun:_PyImport_FixupExtension
   fun:_PyImport_FixupExtension
   fun:PyImport_ReloadModule
}
{
   Boost Python memort leak
   Memcheck:Leak
   fun:malloc
   fun:_Znwm
   fun:_ZN5boost6python6detail17make_function_auxIPFvP7_objectENS0_21default_call_policiesENS_3mpl7vector2IvS4_EEN4mpl_4int_ILi0EEEEENS0_3api6objectET_RKT0_RKT1_RKSt4pairIPKNS1_7keywordESQ_ET2_
   fun:_ZN5boost6python6detail12def_init_auxINS0_6class_IN3psi9IntVectorENS_10shared_ptrIS5_EENS1_13not_specifiedES8_EENS0_21default_call_policiesENS_3mpl7vector0IN4mpl_2naEEENSB_4sizeISF_EEEEvRT_RKT1_T2_RKT0_PKcRKSt4pairIPKNS1_7keywordESW_E
   fun:_ZN5boost6python6class_IN3psi9IntVectorENS_10shared_ptrIS3_EENS0_6detail13not_specifiedES7_EC2EPKcSA_
   fun:_Z12export_mintsv
   fun:_Z18init_module_PsiModv
   fun:_ZN5boost6python21handle_exception_implENS_9function0IvEE
   fun:_ZN5boost6python16handle_exceptionIPFvvEEEbT_
   fun:_ZN5boost6python6detail11init_moduleEPKcPFvvE
   fun:_PyImport_FixupExtension
   fun:_PyImport_FixupExtension
}
{
   Boost Python memort leak
   Memcheck:Leak
   fun:malloc
   fun:_Znwm
   fun:_ZN5boost6python6detail17make_function_auxIPFvP7_objectiENS0_21default_call_policiesENS_3mpl7vector3IvS4_iEEN4mpl_4int_ILi0EEEEENS0_3api6objectET_RKT0_RKT1_RKSt4pairIPKNS1_7keywordESQ_ET2_
   fun:_ZN5boost6python6detail12def_init_auxINS0_6class_IN3psi9IntVectorENS_10shared_ptrIS5_EENS1_13not_specifiedES8_EENS0_21default_call_policiesENS_3mpl7vector1IiEENSB_4sizeISD_EEEEvRT_RKT1_T2_RKT0_PKcRKSt4pairIPKNS1_7keywordESU_E
   fun:_Z12export_mintsv
   fun:_Z18init_module_PsiModv
   fun:_ZN5boost6python21handle_exception_implENS_9function0IvEE
   fun:_ZN5boost6python16handle_exceptionIPFvvEEEbT_
   fun:_ZN5boost6python6detail11init_moduleEPKcPFvvE
   fun:_PyImport_FixupExtension
   fun:_PyImport_FixupExtension
   fun:PyImport_ReloadModule
}
{
   Boost Python memort leak
   Memcheck:Leak
   fun:malloc
   fun:_Znwm
   fun:_ZN5boost6python6detail17make_function_auxIPFvP7_objectENS0_21default_call_policiesENS_3mpl7vector2IvS4_EEN4mpl_4int_ILi0EEEEENS0_3api6objectET_RKT0_RKT1_RKSt4pairIPKNS1_7keywordESQ_ET2_
   fun:_ZN5boost6python6detail12def_init_auxINS0_6class_IN3psi6MatrixENS_10shared_ptrIS5_EENS1_13not_specifiedES8_EENS0_21default_call_policiesENS_3mpl7vector0IN4mpl_2naEEENSB_4sizeISF_EEEEvRT_RKT1_T2_RKT0_PKcRKSt4pairIPKNS1_7keywordESW_E
   fun:_ZN5boost6python6class_IN3psi6MatrixENS_10shared_ptrIS3_EENS0_6detail13not_specifiedES7_EC2EPKcSA_
   fun:_Z12export_mintsv
   fun:_Z18init_module_PsiModv
   fun:_ZN5boost6python21handle_exception_implENS_9function0IvEE
   fun:_ZN5boost6python16handle_exceptionIPFvvEEEbT_
   fun:_ZN5boost6python6detail11init_moduleEPKcPFvvE
   fun:_PyImport_FixupExtension
   fun:_PyImport_FixupExtension
}
{
   Boost Python memort leak
   Memcheck:Leak
   fun:malloc
   fun:_Znwm
   fun:_ZN5boost6python6detail17make_function_auxIPFvP7_objectiiENS0_21default_call_policiesENS_3mpl7vector4IvS4_iiEEN4mpl_4int_ILi0EEEEENS0_3api6objectET_RKT0_RKT1_RKSt4pairIPKNS1_7keywordESQ_ET2_
   fun:_ZN5boost6python6detail12def_init_auxINS0_6class_IN3psi6MatrixENS_10shared_ptrIS5_EENS1_13not_specifiedES8_EENS0_21default_call_policiesENS_3mpl7vector2IiiEENSB_4sizeISD_EEEEvRT_RKT1_T2_RKT0_PKcRKSt4pairIPKNS1_7keywordESU_E
   fun:_Z12export_mintsv
   fun:_Z18init_module_PsiModv
   fun:_ZN5boost6python21handle_exception_implENS_9function0IvEE
   fun:_ZN5boost6python16handle_exceptionIPFvvEEEbT_
   fun:_ZN5boost6python6detail11init_moduleEPKcPFvvE
   fun:_PyImport_FixupExtension
   fun:_PyImport_FixupExtension
   fun:PyImport_ReloadModule
}
{
   Boost Python memort leak
   Memcheck:Leak
   fun:malloc
   fun:_Znwm
   fun:_ZN5boost6python6detail17make_function_auxIPFvP7_objectENS0_21default_call_policiesENS_3mpl7vector2IvS4_EEN4mpl_4int_ILi0EEEEENS0_3api6objectET_RKT0_RKT1_RKSt4pairIPKNS1_7keywordESQ_ET2_
   fun:_ZN5boost6python6detail12def_init_auxINS0_6class_IN3psi11MintsHelperENS_10shared_ptrIS5_EENS1_13not_specifiedES8_EENS0_21default_call_policiesENS_3mpl7vector0IN4mpl_2naEEENSB_4sizeISF_EEEEvRT_RKT1_T2_RKT0_PKcRKSt4pairIPKNS1_7keywordESW_E
   fun:_ZN5boost6python6class_IN3psi11MintsHelperENS_10shared_ptrIS3_EENS0_6detail13not_specifiedES7_EC2EPKcSA_
   fun:_Z12export_mintsv
   fun:_Z18init_module_PsiModv
   fun:_ZN5boost6python21handle_exception_implENS_9function0IvEE
   fun:_ZN5boost6python16handle_exceptionIPFvvEEEbT_
   fun:_ZN5boost6python6detail11init_moduleEPKcPFvvE
   fun:_PyImport_FixupExtension
   fun:_PyImport_FixupExtension
}
{
   Boost Python memort leak
   Memcheck:Leak
   fun:malloc
   fun:_Znwm
   fun:_ZN5boost6python6detail17make_function_auxIPFvP7_objectENS0_21default_call_policiesENS_3mpl7vector2IvS4_EEN4mpl_4int_ILi0EEEEENS0_3api6objectET_RKT0_RKT1_RKSt4pairIPKNS1_7keywordESQ_ET2_
   fun:_ZN5boost6python6detail12def_init_auxINS0_6class_IN3psi13FittingMetricENS_10shared_ptrIS5_EENS1_13not_specifiedES8_EENS0_21default_call_policiesENS_3mpl7vector0IN4mpl_2naEEENSB_4sizeISF_EEEEvRT_RKT1_T2_RKT0_PKcRKSt4pairIPKNS1_7keywordESW_E
   fun:_ZN5boost6python6class_IN3psi13FittingMetricENS_10shared_ptrIS3_EENS0_6detail13not_specifiedES7_EC2EPKcSA_
   fun:_Z12export_mintsv
   fun:_Z18init_module_PsiModv
   fun:_ZN5boost6python21handle_exception_implENS_9function0IvEE
   fun:_ZN5boost6python16handle_exceptionIPFvvEEEbT_
   fun:_ZN5boost6python6detail11init_moduleEPKcPFvvE
   fun:_PyImport_FixupExtension
   fun:_PyImport_FixupExtension
}
{
   Boost Python memort leak
   Memcheck:Leak
   fun:malloc
   fun:_Znwm
   fun:_ZN5boost6python6detail17make_function_auxIPFvP7_objectENS0_21default_call_policiesENS_3mpl7vector2IvS4_EEN4mpl_4int_ILi0EEEEENS0_3api6objectET_RKT0_RKT1_RKSt4pairIPKNS1_7keywordESQ_ET2_
   fun:_ZN5boost6python6detail12def_init_auxINS0_6class_IN3psi11PseudoTrialENS_10shared_ptrIS5_EENS1_13not_specifiedES8_EENS0_21default_call_policiesENS_3mpl7vector0IN4mpl_2naEEENSB_4sizeISF_EEEEvRT_RKT1_T2_RKT0_PKcRKSt4pairIPKNS1_7keywordESW_E
   fun:_ZN5boost6python6class_IN3psi11PseudoTrialENS_10shared_ptrIS3_EENS0_6detail13not_specifiedES7_EC2EPKcSA_
   fun:_Z12export_mintsv
   fun:_Z18init_module_PsiModv
   fun:_ZN5boost6python21handle_exception_implENS_9function0IvEE
   fun:_ZN5boost6python16handle_exceptionIPFvvEEEbT_
   fun:_ZN5boost6python6detail11init_moduleEPKcPFvvE
   fun:_PyImport_FixupExtension
   fun:_PyImport_FixupExtension
}
{
   Boost Python memort leak
   Memcheck:Leak
   fun:malloc
   fun:_Znwm
   fun:_ZN5boost6python6detail17make_function_auxIPFvP7_objectENS0_21default_call_policiesENS_3mpl7vector2IvS4_EEN4mpl_4int_ILi0EEEEENS0_3api6objectET_RKT0_RKT1_RKSt4pairIPKNS1_7keywordESQ_ET2_
   fun:_ZN5boost6python6detail12def_init_auxINS0_6class_IN3psi7Vector3ENS1_13not_specifiedES6_S6_EENS0_21default_call_policiesENS_3mpl7vector0IN4mpl_2naEEENS9_4sizeISD_EEEEvRT_RKT1_T2_RKT0_PKcRKSt4pairIPKNS1_7keywordESU_E
   fun:_ZN5boost6python6class_IN3psi7Vector3ENS0_6detail13not_specifiedES5_S5_EC2EPKcS8_
   fun:_Z12export_mintsv
   fun:_Z18init_module_PsiModv
   fun:_ZN5boost6python21handle_exception_implENS_9function0IvEE
   fun:_ZN5boost6python16handle_exceptionIPFvvEEEbT_
   fun:_ZN5boost6python6detail11init_moduleEPKcPFvvE
   fun:_PyImport_FixupExtension
   fun:_PyImport_FixupExtension
}
{
   Boost Python memort leak
   Memcheck:Leak
   fun:malloc
   fun:_Znwm
   fun:_ZN5boost6python6detail17make_function_auxIPFvP7_objectdENS0_21default_call_policiesENS_3mpl7vector3IvS4_dEEN4mpl_4int_ILi0EEEEENS0_3api6objectET_RKT0_RKT1_RKSt4pairIPKNS1_7keywordESQ_ET2_
   fun:_ZN5boost6python6detail12def_init_auxINS0_6class_IN3psi7Vector3ENS1_13not_specifiedES6_S6_EENS0_21default_call_policiesENS_3mpl7vector1IdEENS9_4sizeISB_EEEEvRT_RKT1_T2_RKT0_PKcRKSt4pairIPKNS1_7keywordESS_E
   fun:_Z12export_mintsv
   fun:_Z18init_module_PsiModv
   fun:_ZN5boost6python21handle_exception_implENS_9function0IvEE
   fun:_ZN5boost6python16handle_exceptionIPFvvEEEbT_
   fun:_ZN5boost6python6detail11init_moduleEPKcPFvvE
   fun:_PyImport_FixupExtension
   fun:_PyImport_FixupExtension
   fun:PyImport_ReloadModule
}
{
   Boost Python memort leak
   Memcheck:Leak
   fun:malloc
   fun:_Znwm
   fun:_ZN5boost6python6detail17make_function_auxIPFvP7_objectdddENS0_21default_call_policiesENS_3mpl7vector5IvS4_dddEEN4mpl_4int_ILi0EEEEENS0_3api6objectET_RKT0_RKT1_RKSt4pairIPKNS1_7keywordESQ_ET2_
   fun:_ZN5boost6python6detail12def_init_auxINS0_6class_IN3psi7Vector3ENS1_13not_specifiedES6_S6_EENS0_21default_call_policiesENS_3mpl7vector3IdddEENS9_4sizeISB_EEEEvRT_RKT1_T2_RKT0_PKcRKSt4pairIPKNS1_7keywordESS_E
   fun:_Z12export_mintsv
   fun:_Z18init_module_PsiModv
   fun:_ZN5boost6python21handle_exception_implENS_9function0IvEE
   fun:_ZN5boost6python16handle_exceptionIPFvvEEEbT_
   fun:_ZN5boost6python6detail11init_moduleEPKcPFvvE
   fun:_PyImport_FixupExtension
   fun:_PyImport_FixupExtension
   fun:PyImport_ReloadModule
}
{
   Boost Python memort leak
   Memcheck:Leak
   fun:malloc
   fun:_Znwm
   fun:_ZN5boost6python6detail17make_function_auxIPFvP7_objectRKN3psi7Vector3EENS0_21default_call_policiesENS_3mpl7vector3IvS4_S8_EEN4mpl_4int_ILi0EEEEENS0_3api6objectET_RKT0_RKT1_RKSt4pairIPKNS1_7keywordESU_ET2_
   fun:_ZN5boost6python6detail12def_init_auxINS0_6class_IN3psi7Vector3ENS1_13not_specifiedES6_S6_EENS0_21default_call_policiesENS_3mpl7vector1IRKS5_EENS9_4sizeISD_EEEEvRT_RKT1_T2_RKT0_PKcRKSt4pairIPKNS1_7keywordESU_E
   fun:_Z12export_mintsv
   fun:_Z18init_module_PsiModv
   fun:_ZN5boost6python21handle_exception_implENS_9function0IvEE
   fun:_ZN5boost6python16handle_exceptionIPFvvEEEbT_
   fun:_ZN5boost6python6detail11init_moduleEPKcPFvvE
   fun:_PyImport_FixupExtension
   fun:_PyImport_FixupExtension
   fun:PyImport_ReloadModule
}
{
   Boost Python memort leak
   Memcheck:Leak
   fun:malloc
   fun:_Znwm
   fun:_ZN5boost6python6detail17make_function_auxIPFP7_objectNS0_14back_referenceIRN3psi7Vector3EEERKS7_ENS0_21default_call_policiesENS_3mpl7vector3IS4_S9_SB_EEN4mpl_4int_ILi0EEEEENS0_3api6objectET_RKT0_RKT1_RKSt4pairIPKNS1_7keywordESX_ET2_
   fun:_ZN5boost6python6class_IN3psi7Vector3ENS0_6detail13not_specifiedES5_S5_E8def_implIS3_PFP7_objectNS0_14back_referenceIRS3_EERKS3_ENS4_10def_helperIPKcS5_S5_S5_EEEEvPT_SJ_T0_RKT1_z
   fun:_Z12export_mintsv
   fun:_Z18init_module_PsiModv
   fun:_ZN5boost6python21handle_exception_implENS_9function0IvEE
   fun:_ZN5boost6python16handle_exceptionIPFvvEEEbT_
   fun:_ZN5boost6python6detail11init_moduleEPKcPFvvE
   fun:_PyImport_FixupExtension
   fun:_PyImport_FixupExtension
   fun:PyImport_ReloadModule
}
{
   Boost Python memort leak
   Memcheck:Leak
   fun:malloc
   fun:_Znwm
   fun:_ZN5boost6python6detail17make_function_auxIPFP7_objectNS0_14back_referenceIRN3psi7Vector3EEERKS7_ENS0_21default_call_policiesENS_3mpl7vector3IS4_S9_SB_EEN4mpl_4int_ILi0EEEEENS0_3api6objectET_RKT0_RKT1_RKSt4pairIPKNS1_7keywordESX_ET2_
   fun:_ZN5boost6python6class_IN3psi7Vector3ENS0_6detail13not_specifiedES5_S5_E8def_implIS3_PFP7_objectNS0_14back_referenceIRS3_EERKS3_ENS4_10def_helperIPKcS5_S5_S5_EEEEvPT_SJ_T0_RKT1_z
   fun:_Z12export_mintsv
   fun:_Z18init_module_PsiModv
   fun:_ZN5boost6python21handle_exception_implENS_9function0IvEE
   fun:_ZN5boost6python16handle_exceptionIPFvvEEEbT_
   fun:_ZN5boost6python6detail11init_moduleEPKcPFvvE
   fun:_PyImport_FixupExtension
   fun:_PyImport_FixupExtension
   fun:PyImport_ReloadModule
}
{
   Boost Python memort leak
   Memcheck:Leak
   fun:malloc
   fun:_Znwm
   fun:_ZN5boost6python6detail17make_function_auxIPFP7_objectNS0_14back_referenceIRN3psi7Vector3EEERKdENS0_21default_call_policiesENS_3mpl7vector3IS4_S9_SB_EEN4mpl_4int_ILi0EEEEENS0_3api6objectET_RKT0_RKT1_RKSt4pairIPKNS1_7keywordESX_ET2_
   fun:_ZN5boost6python6class_IN3psi7Vector3ENS0_6detail13not_specifiedES5_S5_E8def_implIS3_PFP7_objectNS0_14back_referenceIRS3_EERKdENS4_10def_helperIPKcS5_S5_S5_EEEEvPT_SJ_T0_RKT1_z
   fun:_Z12export_mintsv
   fun:_Z18init_module_PsiModv
   fun:_ZN5boost6python21handle_exception_implENS_9function0IvEE
   fun:_ZN5boost6python16handle_exceptionIPFvvEEEbT_
   fun:_ZN5boost6python6detail11init_moduleEPKcPFvvE
   fun:_PyImport_FixupExtension
   fun:_PyImport_FixupExtension
   fun:PyImport_ReloadModule
}
{
   Boost Python memort leak
   Memcheck:Leak
   fun:malloc
   fun:_Znwm
   fun:_ZN5boost6python6detail17make_function_auxIPFP7_objectRN3psi7Vector3ERKS6_ENS0_21default_call_policiesENS_3mpl7vector3IS4_S7_S9_EEN4mpl_4int_ILi0EEEEENS0_3api6objectET_RKT0_RKT1_RKSt4pairIPKNS1_7keywordESV_ET2_
   fun:_ZN5boost6python6class_IN3psi7Vector3ENS0_6detail13not_specifiedES5_S5_E8def_implIS3_PFP7_objectRS3_RKS3_ENS4_10def_helperIPKcS5_S5_S5_EEEEvPT_SH_T0_RKT1_z
   fun:_Z12export_mintsv
   fun:_Z18init_module_PsiModv
   fun:_ZN5boost6python21handle_exception_implENS_9function0IvEE
   fun:_ZN5boost6python16handle_exceptionIPFvvEEEbT_
   fun:_ZN5boost6python6detail11init_moduleEPKcPFvvE
   fun:_PyImport_FixupExtension
   fun:_PyImport_FixupExtension
   fun:PyImport_ReloadModule
}
{
   Boost Python memort leak
   Memcheck:Leak
   fun:malloc
   fun:_Znwm
   fun:_ZN5boost6python6detail17make_function_auxIPFP7_objectRN3psi7Vector3ERKS6_ENS0_21default_call_policiesENS_3mpl7vector3IS4_S7_S9_EEN4mpl_4int_ILi0EEEEENS0_3api6objectET_RKT0_RKT1_RKSt4pairIPKNS1_7keywordESV_ET2_
   fun:_ZN5boost6python6class_IN3psi7Vector3ENS0_6detail13not_specifiedES5_S5_E8def_implIS3_PFP7_objectRS3_RKS3_ENS4_10def_helperIPKcS5_S5_S5_EEEEvPT_SH_T0_RKT1_z
   fun:_Z12export_mintsv
   fun:_Z18init_module_PsiModv
   fun:_ZN5boost6python21handle_exception_implENS_9function0IvEE
   fun:_ZN5boost6python16handle_exceptionIPFvvEEEbT_
   fun:_ZN5boost6python6detail11init_moduleEPKcPFvvE
   fun:_PyImport_FixupExtension
   fun:_PyImport_FixupExtension
   fun:PyImport_ReloadModule
}
{
   Boost Python memort leak
   Memcheck:Leak
   fun:malloc
   fun:_Znwm
   fun:_ZN5boost6python6detail17make_function_auxIPFP7_objectRN3psi7Vector3EENS0_21default_call_policiesENS_3mpl7vector2IS4_S7_EEN4mpl_4int_ILi0EEEEENS0_3api6objectET_RKT0_RKT1_RKSt4pairIPKNS1_7keywordEST_ET2_
   fun:_ZN5boost6python6class_IN3psi7Vector3ENS0_6detail13not_specifiedES5_S5_E8def_implIS3_PFP7_objectRS3_ENS4_10def_helperIPKcS5_S5_S5_EEEEvPT_SF_T0_RKT1_z
   fun:_Z12export_mintsv
   fun:_Z18init_module_PsiModv
   fun:_ZN5boost6python21handle_exception_implENS_9function0IvEE
   fun:_ZN5boost6python16handle_exceptionIPFvvEEEbT_
   fun:_ZN5boost6python6detail11init_moduleEPKcPFvvE
   fun:_PyImport_FixupExtension
   fun:_PyImport_FixupExtension
   fun:PyImport_ReloadModule
}
{
   Boost Python memort leak
   Memcheck:Leak
   fun:malloc
   fun:_Znwm
   fun:_ZN5boost6python6detail17make_function_auxIPFvP7_objectENS0_21default_call_policiesENS_3mpl7vector2IvS4_EEN4mpl_4int_ILi0EEEEENS0_3api6objectET_RKT0_RKT1_RKSt4pairIPKNS1_7keywordESQ_ET2_
   fun:_ZN5boost6python6detail12def_init_auxINS0_6class_IN3psi17SymmetryOperationENS1_13not_specifiedES6_S6_EENS0_21default_call_policiesENS_3mpl7vector0IN4mpl_2naEEENS9_4sizeISD_EEEEvRT_RKT1_T2_RKT0_PKcRKSt4pairIPKNS1_7keywordESU_E
   fun:_ZN5boost6python6class_IN3psi17SymmetryOperationENS0_6detail13not_specifiedES5_S5_EC2EPKcS8_
   fun:_Z12export_mintsv
   fun:_Z18init_module_PsiModv
   fun:_ZN5boost6python21handle_exception_implENS_9function0IvEE
   fun:_ZN5boost6python16handle_exceptionIPFvvEEEbT_
   fun:_ZN5boost6python6detail11init_moduleEPKcPFvvE
   fun:_PyImport_FixupExtension
   fun:_PyImport_FixupExtension
}
{
   Boost Python memort leak
   Memcheck:Leak
   fun:malloc
   fun:_Znwm
   fun:_ZN5boost6python6detail17make_function_auxIPFvP7_objectRKN3psi17SymmetryOperationEENS0_21default_call_policiesENS_3mpl7vector3IvS4_S8_EEN4mpl_4int_ILi0EEEEENS0_3api6objectET_RKT0_RKT1_RKSt4pairIPKNS1_7keywordESU_ET2_
   fun:_ZN5boost6python6detail12def_init_auxINS0_6class_IN3psi17SymmetryOperationENS1_13not_specifiedES6_S6_EENS0_21default_call_policiesENS_3mpl7vector1IRKS5_EENS9_4sizeISD_EEEEvRT_RKT1_T2_RKT0_PKcRKSt4pairIPKNS1_7keywordESU_E
   fun:_Z12export_mintsv
   fun:_Z18init_module_PsiModv
   fun:_ZN5boost6python21handle_exception_implENS_9function0IvEE
   fun:_ZN5boost6python16handle_exceptionIPFvvEEEbT_
   fun:_ZN5boost6python6detail11init_moduleEPKcPFvvE
   fun:_PyImport_FixupExtension
   fun:_PyImport_FixupExtension
   fun:PyImport_ReloadModule
}
{
   Boost Python memort leak
   Memcheck:Leak
   fun:malloc
   fun:_Znwm
   fun:_ZN5boost6python6detail17make_function_auxIPFvP7_objectENS0_21default_call_policiesENS_3mpl7vector2IvS4_EEN4mpl_4int_ILi0EEEEENS0_3api6objectET_RKT0_RKT1_RKSt4pairIPKNS1_7keywordESQ_ET2_
   fun:_ZN5boost6python6detail12def_init_auxINS0_6class_IN3psi10PointGroupENS_10shared_ptrIS5_EENS1_13not_specifiedES8_EENS0_21default_call_policiesENS_3mpl7vector0IN4mpl_2naEEENSB_4sizeISF_EEEEvRT_RKT1_T2_RKT0_PKcRKSt4pairIPKNS1_7keywordESW_E
   fun:_ZN5boost6python6class_IN3psi10PointGroupENS_10shared_ptrIS3_EENS0_6detail13not_specifiedES7_EC2EPKcSA_
   fun:_Z12export_mintsv
   fun:_Z18init_module_PsiModv
   fun:_ZN5boost6python21handle_exception_implENS_9function0IvEE
   fun:_ZN5boost6python16handle_exceptionIPFvvEEEbT_
   fun:_ZN5boost6python6detail11init_moduleEPKcPFvvE
   fun:_PyImport_FixupExtension
   fun:_PyImport_FixupExtension
}
{
   Boost Python memort leak
   Memcheck:Leak
   fun:malloc
   fun:_Znwm
   fun:_ZN5boost6python6detail17make_function_auxIPFvP7_objectPKcENS0_21default_call_policiesENS_3mpl7vector3IvS4_S6_EEN4mpl_4int_ILi0EEEEENS0_3api6objectET_RKT0_RKT1_RKSt4pairIPKNS1_7keywordESS_ET2_
   fun:_ZN5boost6python6detail12def_init_auxINS0_6class_IN3psi10PointGroupENS_10shared_ptrIS5_EENS1_13not_specifiedES8_EENS0_21default_call_policiesENS_3mpl7vector1IPKcEENSB_4sizeISF_EEEEvRT_RKT1_T2_RKT0_SE_RKSt4pairIPKNS1_7keywordESU_E
   fun:_Z12export_mintsv
   fun:_Z18init_module_PsiModv
   fun:_ZN5boost6python21handle_exception_implENS_9function0IvEE
   fun:_ZN5boost6python16handle_exceptionIPFvvEEEbT_
   fun:_ZN5boost6python6detail11init_moduleEPKcPFvvE
   fun:_PyImport_FixupExtension
   fun:_PyImport_FixupExtension
   fun:PyImport_ReloadModule
}
{
   Boost Python memort leak
   Memcheck:Leak
   fun:malloc
   fun:_Znwm
   fun:_ZN5boost6python6detail17make_function_auxIPFvP7_objectENS0_21default_call_policiesENS_3mpl7vector2IvS4_EEN4mpl_4int_ILi0EEEEENS0_3api6objectET_RKT0_RKT1_RKSt4pairIPKNS1_7keywordESQ_ET2_
   fun:_ZN5boost6python6detail12def_init_auxINS0_6class_IN3psi24Gaussian94BasisSetParserENS_10shared_ptrIS5_EENS0_5basesINS4_14BasisSetParserEN4mpl_5void_ESB_SB_SB_SB_SB_SB_SB_SB_EENS1_13not_specifiedEEENS0_21default_call_policiesENS_3mpl7vector0INSA_2naEEENSG_4sizeISJ_EEEEvRT_RKT1_T2_RKT0_PKcRKSt4pairIPKNS1_7keywordES10_E
   fun:_ZN5boost6python6class_IN3psi24Gaussian94BasisSetParserENS_10shared_ptrIS3_EENS0_5basesINS2_14BasisSetParserEN4mpl_5void_ES9_S9_S9_S9_S9_S9_S9_S9_EENS0_6detail13not_specifiedEEC2EPKcSF_
   fun:_Z12export_mintsv
   fun:_Z18init_module_PsiModv
   fun:_ZN5boost6python21handle_exception_implENS_9function0IvEE
   fun:_ZN5boost6python16handle_exceptionIPFvvEEEbT_
   fun:_ZN5boost6python6detail11init_moduleEPKcPFvvE
   fun:_PyImport_FixupExtension
   fun:_PyImport_FixupExtension
}
{
   Boost Python memort leak
   Memcheck:Leak
   fun:malloc
   fun:_Znwm
   fun:_ZN5boost6python6detail17make_function_auxIPFvP7_objectENS0_21default_call_policiesENS_3mpl7vector2IvS4_EEN4mpl_4int_ILi0EEEEENS0_3api6objectET_RKT0_RKT1_RKSt4pairIPKNS1_7keywordESQ_ET2_
   fun:_ZN5boost6python6detail12def_init_auxINS0_6class_IN3psi17ExternalPotentialENS_10shared_ptrIS5_EENS_12noncopyable_11noncopyableENS1_13not_specifiedEEENS0_21default_call_policiesENS_3mpl7vector0IN4mpl_2naEEENSD_4sizeISH_EEEEvRT_RKT1_T2_RKT0_PKcRKSt4pairIPKNS1_7keywordESY_E
   fun:_ZN5boost6python6class_IN3psi17ExternalPotentialENS_10shared_ptrIS3_EENS_12noncopyable_11noncopyableENS0_6detail13not_specifiedEEC2EPKcSC_
   fun:_Z12export_mintsv
   fun:_Z18init_module_PsiModv
   fun:_ZN5boost6python21handle_exception_implENS_9function0IvEE
   fun:_ZN5boost6python16handle_exceptionIPFvvEEEbT_
   fun:_ZN5boost6python6detail11init_moduleEPKcPFvvE
   fun:_PyImport_FixupExtension
   fun:_PyImport_FixupExtension
}
{
   Boost Python memort leak
   Memcheck:Leak
   fun:malloc
   fun:_Znwm
   fun:_ZN5boost6python6detail17make_function_auxIPFvP7_objectNS_10shared_ptrIN3psi12WavefunctionEEEENS0_21default_call_policiesENS_3mpl7vector3IvS4_S8_EEN4mpl_4int_ILi0EEEEENS0_3api6objectET_RKT0_RKT1_RKSt4pairIPKNS1_7keywordESU_ET2_
   fun:_ZN5boost6python6detail12def_init_auxINS0_6class_IN3psi12MoldenWriterENS_10shared_ptrIS5_EENS1_13not_specifiedES8_EENS0_21default_call_policiesENS_3mpl7vector1INS6_INS4_12WavefunctionEEEEENSB_4sizeISF_EEEEvRT_RKT1_T2_RKT0_PKcRKSt4pairIPKNS1_7keywordESW_E
   fun:_Z12export_mintsv
   fun:_Z18init_module_PsiModv
   fun:_ZN5boost6python21handle_exception_implENS_9function0IvEE
   fun:_ZN5boost6python16handle_exceptionIPFvvEEEbT_
   fun:_ZN5boost6python6detail11init_moduleEPKcPFvvE
   fun:_PyImport_FixupExtension
   fun:_PyImport_FixupExtension
   fun:PyImport_ReloadModule
}
{
   Boost Python memort leak
   Memcheck:Leak
   fun:malloc
   fun:_Znwm
   fun:_ZN5boost6python6detail17make_function_auxIPFvP7_objectNS_10shared_ptrIN3psi12WavefunctionEEEENS0_21default_call_policiesENS_3mpl7vector3IvS4_S8_EEN4mpl_4int_ILi0EEEEENS0_3api6objectET_RKT0_RKT1_RKSt4pairIPKNS1_7keywordESU_ET2_
   fun:_ZN5boost6python6detail12def_init_auxINS0_6class_IN3psi9NBOWriterENS_10shared_ptrIS5_EENS1_13not_specifiedES8_EENS0_21default_call_policiesENS_3mpl7vector1INS6_INS4_12WavefunctionEEEEENSB_4sizeISF_EEEEvRT_RKT1_T2_RKT0_PKcRKSt4pairIPKNS1_7keywordESW_E
   fun:_Z12export_mintsv
   fun:_Z18init_module_PsiModv
   fun:_ZN5boost6python21handle_exception_implENS_9function0IvEE
   fun:_ZN5boost6python16handle_exceptionIPFvvEEEbT_
   fun:_ZN5boost6python6detail11init_moduleEPKcPFvvE
   fun:_PyImport_FixupExtension
   fun:_PyImport_FixupExtension
   fun:PyImport_ReloadModule
}
{
   Boost Python memort leak
   Memcheck:Leak
   fun:malloc
   fun:_Znwm
   fun:_ZN5boost6python6detail17make_function_auxIPFvP7_objectiRKNS_10shared_ptrIN3psi8MoleculeEEERKNS5_INS6_15IntegralFactoryEEERKNS5_INS6_13MatrixFactoryEEEENS0_21default_call_policiesENS_3mpl7vector6IvS4_iSA_SE_SI_EEN4mpl_4int_ILi0EEEEENS0_3api6objectET_RKT0_RKT1_RKSt4pairIPKNS1_7keywordES14_ET2_
   fun:_ZN5boost6python6detail12def_init_auxINS0_6class_IN3psi16OperatorSymmetryENS_10shared_ptrIS5_EENS1_13not_specifiedES8_EENS0_21default_call_policiesENS_3mpl7vector4IiRKNS6_INS4_8MoleculeEEERKNS6_INS4_15IntegralFactoryEEERKNS6_INS4_13MatrixFactoryEEEEENSB_4sizeISP_EEEEvRT_RKT1_T2_RKT0_PKcRKSt4pairIPKNS1_7keywordES16_E
   fun:_Z12export_mintsv
   fun:_Z18init_module_PsiModv
   fun:_ZN5boost6python21handle_exception_implENS_9function0IvEE
   fun:_ZN5boost6python16handle_exceptionIPFvvEEEbT_
   fun:_ZN5boost6python6detail11init_moduleEPKcPFvvE
   fun:_PyImport_FixupExtension
   fun:_PyImport_FixupExtension
   fun:PyImport_ReloadModule
}
{
   Boost Python memort leak
   Memcheck:Leak
   fun:malloc
   fun:_Znwm
   fun:_ZN5boost6python6detail17make_function_auxIPFvP7_objectENS0_21default_call_policiesENS_3mpl7vector2IvS4_EEN4mpl_4int_ILi0EEEEENS0_3api6objectET_RKT0_RKT1_RKSt4pairIPKNS1_7keywordESQ_ET2_
   fun:_ZN5boost6python6detail12def_init_auxINS0_6class_IN3psi7Process11EnvironmentENS1_13not_specifiedES7_S7_EENS0_21default_call_policiesENS_3mpl7vector0IN4mpl_2naEEENSA_4sizeISE_EEEEvRT_RKT1_T2_RKT0_PKcRKSt4pairIPKNS1_7keywordESV_E
   fun:_ZN5boost6python6class_IN3psi7Process11EnvironmentENS0_6detail13not_specifiedES6_S6_EC2EPKcS9_
   fun:_Z18init_module_PsiModv
   fun:_ZN5boost6python21handle_exception_implENS_9function0IvEE
   fun:_ZN5boost6python16handle_exceptionIPFvvEEEbT_
   fun:_ZN5boost6python6detail11init_moduleEPKcPFvvE
   fun:_PyImport_FixupExtension
   fun:_PyImport_FixupExtension
   fun:PyImport_ReloadModule
}
{
   Boost Python memort leak
   Memcheck:Leak
   fun:malloc
   fun:_Znwm
   fun:_ZN5boost6python6detail17make_function_auxIPFvP7_objectENS0_21default_call_policiesENS_3mpl7vector2IvS4_EEN4mpl_4int_ILi0EEEEENS0_3api6objectET_RKT0_RKT1_RKSt4pairIPKNS1_7keywordESQ_ET2_
   fun:_ZN5boost6python6detail12def_init_auxINS0_6class_IN3psi7Process9ArgumentsENS1_13not_specifiedES7_S7_EENS0_21default_call_policiesENS_3mpl7vector0IN4mpl_2naEEENSA_4sizeISE_EEEEvRT_RKT1_T2_RKT0_PKcRKSt4pairIPKNS1_7keywordESV_E
   fun:_ZN5boost6python6class_IN3psi7Process9ArgumentsENS0_6detail13not_specifiedES6_S6_EC2EPKcS9_
   fun:_Z18init_module_PsiModv
   fun:_ZN5boost6python21handle_exception_implENS_9function0IvEE
   fun:_ZN5boost6python16handle_exceptionIPFvvEEEbT_
   fun:_ZN5boost6python6detail11init_moduleEPKcPFvvE
   fun:_PyImport_FixupExtension
   fun:_PyImport_FixupExtension
   fun:PyImport_ReloadModule
}
{
   Boost Python memort leak
   Memcheck:Leak
   fun:malloc_zone_malloc
   fun:malloc_set_zone_name
   fun:_malloc_initialize
   fun:malloc_create_zone
   fun:_dispatch_ccache_init
   fun:dispatch_once_f
   fun:_dispatch_continuation_alloc_from_heap
   fun:dispatch_group_async_f
   fun:rowMajorNoTranspose
   fun:cblas_dgemv
   fun:DGEMV
   fun:DLARF
}
{
   Boost Python memort leak
   Memcheck:Leak
   fun:malloc_zone_malloc
   fun:malloc_set_zone_name
   fun:dispatch_once_f
   fun:_dispatch_continuation_alloc_from_heap
   fun:dispatch_group_async_f
   fun:rowMajorNoTranspose
   fun:cblas_dgemv
   fun:DGEMV
   fun:DLARF
   fun:DORG2L
   fun:DORGQL
   fun:DORGTR
}
{
   Boost Python memort leak
   Memcheck:Leak
   fun:malloc
   fun:_Znwm
   fun:_ZN5boost6python6detail17make_function_auxIMN3psi6OEPropEFvRKSsENS0_21default_call_policiesENS_3mpl7vector3IvRS4_S6_EEN4mpl_4int_ILi0EEEEENS0_3api6objectET_RKT0_RKT1_RKSt4pairIPKNS1_7keywordEST_ET2_
   fun:_ZN5boost6python6class_IN3psi6OEPropENS_10shared_ptrIS3_EENS0_6detail13not_specifiedES7_E8def_implIS3_MS3_FvRKSsENS6_10def_helperIPKcS7_S7_S7_EEEEvPT_SG_T0_RKT1_z
   fun:_Z13export_oepropv
   fun:_Z18init_module_PsiModv
   fun:_ZN5boost6python21handle_exception_implENS_9function0IvEE
   fun:_ZN5boost6python16handle_exceptionIPFvvEEEbT_
   fun:_ZN5boost6python6detail11init_moduleEPKcPFvvE
   fun:_PyImport_FixupExtension
   fun:_PyImport_FixupExtension
   fun:PyImport_ReloadModule
}
{
   Boost Python memort leak
   Memcheck:Leak
   fun:malloc
   fun:_Znwm
   fun:_ZN5boost6python6detail17make_function_auxIMN3psi6OEPropEFvvENS0_21default_call_policiesENS_3mpl7vector2IvRS4_EEN4mpl_4int_ILi0EEEEENS0_3api6objectET_RKT0_RKT1_RKSt4pairIPKNS1_7keywordESR_ET2_
   fun:_ZN5boost6python6class_IN3psi6OEPropENS_10shared_ptrIS3_EENS0_6detail13not_specifiedES7_E8def_implIS3_MS3_FvvENS6_10def_helperIPKcS7_S7_S7_EEEEvPT_SE_T0_RKT1_z
   fun:_Z13export_oepropv
   fun:_Z18init_module_PsiModv
   fun:_ZN5boost6python21handle_exception_implENS_9function0IvEE
   fun:_ZN5boost6python16handle_exceptionIPFvvEEEbT_
   fun:_ZN5boost6python6detail11init_moduleEPKcPFvvE
   fun:_PyImport_FixupExtension
   fun:_PyImport_FixupExtension
   fun:PyImport_ReloadModule
}
{
   Boost Python memort leak
   Memcheck:Leak
   fun:malloc
   fun:_Znwm
   fun:_ZN5boost6python6detail17make_function_auxIMN3psi8GridPropEFvRKSsENS0_21default_call_policiesENS_3mpl7vector3IvRS4_S6_EEN4mpl_4int_ILi0EEEEENS0_3api6objectET_RKT0_RKT1_RKSt4pairIPKNS1_7keywordEST_ET2_
   fun:_ZN5boost6python6class_IN3psi8GridPropENS_10shared_ptrIS3_EENS0_6detail13not_specifiedES7_E8def_implIS3_MS3_FvRKSsENS6_10def_helperIPKcS7_S7_S7_EEEEvPT_SG_T0_RKT1_z
   fun:_Z13export_oepropv
   fun:_Z18init_module_PsiModv
   fun:_ZN5boost6python21handle_exception_implENS_9function0IvEE
   fun:_ZN5boost6python16handle_exceptionIPFvvEEEbT_
   fun:_ZN5boost6python6detail11init_moduleEPKcPFvvE
   fun:_PyImport_FixupExtension
   fun:_PyImport_FixupExtension
   fun:PyImport_ReloadModule
}
{
   Boost Python memort leak
   Memcheck:Leak
   fun:malloc
   fun:_Znwm
   fun:_ZN5boost6python6detail17make_function_auxIMN3psi8GridPropEFvRKSsENS0_21default_call_policiesENS_3mpl7vector3IvRS4_S6_EEN4mpl_4int_ILi0EEEEENS0_3api6objectET_RKT0_RKT1_RKSt4pairIPKNS1_7keywordEST_ET2_
   fun:_ZN5boost6python6class_IN3psi8GridPropENS_10shared_ptrIS3_EENS0_6detail13not_specifiedES7_E8def_implIS3_MS3_FvRKSsENS6_10def_helperIPKcS7_S7_S7_EEEEvPT_SG_T0_RKT1_z
   fun:_Z13export_oepropv
   fun:_Z18init_module_PsiModv
   fun:_ZN5boost6python21handle_exception_implENS_9function0IvEE
   fun:_ZN5boost6python16handle_exceptionIPFvvEEEbT_
   fun:_ZN5boost6python6detail11init_moduleEPKcPFvvE
   fun:_PyImport_FixupExtension
   fun:_PyImport_FixupExtension
   fun:PyImport_ReloadModule
}
{
   Boost Python memort leak
   Memcheck:Leak
   fun:malloc
   fun:_Znwm
   fun:_ZN5boost6python6detail17make_function_auxIMN3psi8GridPropEFviiENS0_21default_call_policiesENS_3mpl7vector4IvRS4_iiEEN4mpl_4int_ILi0EEEEENS0_3api6objectET_RKT0_RKT1_RKSt4pairIPKNS1_7keywordESR_ET2_
   fun:_ZN5boost6python6class_IN3psi8GridPropENS_10shared_ptrIS3_EENS0_6detail13not_specifiedES7_E8def_implIS3_MS3_FviiENS6_10def_helperIPKcS7_S7_S7_EEEEvPT_SE_T0_RKT1_z
   fun:_Z13export_oepropv
   fun:_Z18init_module_PsiModv
   fun:_ZN5boost6python21handle_exception_implENS_9function0IvEE
   fun:_ZN5boost6python16handle_exceptionIPFvvEEEbT_
   fun:_ZN5boost6python6detail11init_moduleEPKcPFvvE
   fun:_PyImport_FixupExtension
   fun:_PyImport_FixupExtension
   fun:PyImport_ReloadModule
}
{
   Boost Python memort leak
   Memcheck:Leak
   fun:malloc
   fun:_Znwm
   fun:_ZN5boost6python6detail17make_function_auxIMN3psi8GridPropEFviiENS0_21default_call_policiesENS_3mpl7vector4IvRS4_iiEEN4mpl_4int_ILi0EEEEENS0_3api6objectET_RKT0_RKT1_RKSt4pairIPKNS1_7keywordESR_ET2_
   fun:_ZN5boost6python6class_IN3psi8GridPropENS_10shared_ptrIS3_EENS0_6detail13not_specifiedES7_E8def_implIS3_MS3_FviiENS6_10def_helperIPKcS7_S7_S7_EEEEvPT_SE_T0_RKT1_z
   fun:_Z13export_oepropv
   fun:_Z18init_module_PsiModv
   fun:_ZN5boost6python21handle_exception_implENS_9function0IvEE
   fun:_ZN5boost6python16handle_exceptionIPFvvEEEbT_
   fun:_ZN5boost6python6detail11init_moduleEPKcPFvvE
   fun:_PyImport_FixupExtension
   fun:_PyImport_FixupExtension
   fun:PyImport_ReloadModule
}
{
   Boost Python memort leak
   Memcheck:Leak
   fun:malloc
   fun:_Znwm
   fun:_ZN5boost6python6detail17make_function_auxIMN3psi8GridPropEFviiENS0_21default_call_policiesENS_3mpl7vector4IvRS4_iiEEN4mpl_4int_ILi0EEEEENS0_3api6objectET_RKT0_RKT1_RKSt4pairIPKNS1_7keywordESR_ET2_
   fun:_ZN5boost6python6class_IN3psi8GridPropENS_10shared_ptrIS3_EENS0_6detail13not_specifiedES7_E8def_implIS3_MS3_FviiENS6_10def_helperIPKcS7_S7_S7_EEEEvPT_SE_T0_RKT1_z
   fun:_Z13export_oepropv
   fun:_Z18init_module_PsiModv
   fun:_ZN5boost6python21handle_exception_implENS_9function0IvEE
   fun:_ZN5boost6python16handle_exceptionIPFvvEEEbT_
   fun:_ZN5boost6python6detail11init_moduleEPKcPFvvE
   fun:_PyImport_FixupExtension
   fun:_PyImport_FixupExtension
   fun:PyImport_ReloadModule
}
{
   Boost Python memort leak
   Memcheck:Leak
   fun:malloc
   fun:_Znwm
   fun:_ZN5boost6python6detail17make_function_auxIMN3psi8GridPropEFvdENS0_21default_call_policiesENS_3mpl7vector3IvRS4_dEEN4mpl_4int_ILi0EEEEENS0_3api6objectET_RKT0_RKT1_RKSt4pairIPKNS1_7keywordESR_ET2_
   fun:_ZN5boost6python6class_IN3psi8GridPropENS_10shared_ptrIS3_EENS0_6detail13not_specifiedES7_E8def_implIS3_MS3_FvdENS6_10def_helperIPKcS7_S7_S7_EEEEvPT_SE_T0_RKT1_z
   fun:_Z13export_oepropv
   fun:_Z18init_module_PsiModv
   fun:_ZN5boost6python21handle_exception_implENS_9function0IvEE
   fun:_ZN5boost6python16handle_exceptionIPFvvEEEbT_
   fun:_ZN5boost6python6detail11init_moduleEPKcPFvvE
   fun:_PyImport_FixupExtension
   fun:_PyImport_FixupExtension
   fun:PyImport_ReloadModule
}
{
   Boost Python memort leak
   Memcheck:Leak
   fun:malloc
   fun:_Znwm
   fun:_ZN5boost6python6detail17make_function_auxIMN3psi8GridPropEFviiiENS0_21default_call_policiesENS_3mpl7vector5IvRS4_iiiEEN4mpl_4int_ILi0EEEEENS0_3api6objectET_RKT0_RKT1_RKSt4pairIPKNS1_7keywordESR_ET2_
   fun:_ZN5boost6python6class_IN3psi8GridPropENS_10shared_ptrIS3_EENS0_6detail13not_specifiedES7_E8def_implIS3_MS3_FviiiENS6_10def_helperIPKcS7_S7_S7_EEEEvPT_SE_T0_RKT1_z
   fun:_Z13export_oepropv
   fun:_Z18init_module_PsiModv
   fun:_ZN5boost6python21handle_exception_implENS_9function0IvEE
   fun:_ZN5boost6python16handle_exceptionIPFvvEEEbT_
   fun:_ZN5boost6python6detail11init_moduleEPKcPFvvE
   fun:_PyImport_FixupExtension
   fun:_PyImport_FixupExtension
   fun:PyImport_ReloadModule
}
{
   Boost Python memort leak
   Memcheck:Leak
   fun:malloc
   fun:_Znwm
   fun:_ZN5boost6python6detail17make_function_auxIMN3psi8GridPropEFvdddENS0_21default_call_policiesENS_3mpl7vector5IvRS4_dddEEN4mpl_4int_ILi0EEEEENS0_3api6objectET_RKT0_RKT1_RKSt4pairIPKNS1_7keywordESR_ET2_
   fun:_ZN5boost6python6class_IN3psi8GridPropENS_10shared_ptrIS3_EENS0_6detail13not_specifiedES7_E8def_implIS3_MS3_FvdddENS6_10def_helperIPKcS7_S7_S7_EEEEvPT_SE_T0_RKT1_z
   fun:_Z13export_oepropv
   fun:_Z18init_module_PsiModv
   fun:_ZN5boost6python21handle_exception_implENS_9function0IvEE
   fun:_ZN5boost6python16handle_exceptionIPFvvEEEbT_
   fun:_ZN5boost6python6detail11init_moduleEPKcPFvvE
   fun:_PyImport_FixupExtension
   fun:_PyImport_FixupExtension
   fun:PyImport_ReloadModule
}
{
   Boost Python memort leak
   Memcheck:Leak
   fun:malloc
   fun:_Znwm
   fun:_ZN5boost6python6detail17make_function_auxIMN3psi8GridPropEFvdddENS0_21default_call_policiesENS_3mpl7vector5IvRS4_dddEEN4mpl_4int_ILi0EEEEENS0_3api6objectET_RKT0_RKT1_RKSt4pairIPKNS1_7keywordESR_ET2_
   fun:_ZN5boost6python6class_IN3psi8GridPropENS_10shared_ptrIS3_EENS0_6detail13not_specifiedES7_E8def_implIS3_MS3_FvdddENS6_10def_helperIPKcS7_S7_S7_EEEEvPT_SE_T0_RKT1_z
   fun:_Z13export_oepropv
   fun:_Z18init_module_PsiModv
   fun:_ZN5boost6python21handle_exception_implENS_9function0IvEE
   fun:_ZN5boost6python16handle_exceptionIPFvvEEEbT_
   fun:_ZN5boost6python6detail11init_moduleEPKcPFvvE
   fun:_PyImport_FixupExtension
   fun:_PyImport_FixupExtension
   fun:PyImport_ReloadModule
}
{
   Boost Python memort leak
   Memcheck:Leak
   fun:malloc
   fun:_Znwm
   fun:_ZN5boost6python6detail17make_function_auxIMN3psi8GridPropEKFiiENS0_21default_call_policiesENS_3mpl7vector3IiRS4_iEEN4mpl_4int_ILi0EEEEENS0_3api6objectET_RKT0_RKT1_RKSt4pairIPKNS1_7keywordESR_ET2_
   fun:_ZN5boost6python6class_IN3psi8GridPropENS_10shared_ptrIS3_EENS0_6detail13not_specifiedES7_E8def_implIS3_MS3_KFiiENS6_10def_helperIPKcS7_S7_S7_EEEEvPT_SE_T0_RKT1_z
   fun:_Z13export_oepropv
   fun:_Z18init_module_PsiModv
   fun:_ZN5boost6python21handle_exception_implENS_9function0IvEE
   fun:_ZN5boost6python16handle_exceptionIPFvvEEEbT_
   fun:_ZN5boost6python6detail11init_moduleEPKcPFvvE
   fun:_PyImport_FixupExtension
   fun:_PyImport_FixupExtension
   fun:PyImport_ReloadModule
}
{
   Boost Python memort leak
   Memcheck:Leak
   fun:malloc
   fun:_Znwm
   fun:_ZN5boost6python6detail17make_function_auxIMN3psi8GridPropEKFdiENS0_21default_call_policiesENS_3mpl7vector3IdRS4_iEEN4mpl_4int_ILi0EEEEENS0_3api6objectET_RKT0_RKT1_RKSt4pairIPKNS1_7keywordESR_ET2_
   fun:_ZN5boost6python6class_IN3psi8GridPropENS_10shared_ptrIS3_EENS0_6detail13not_specifiedES7_E8def_implIS3_MS3_KFdiENS6_10def_helperIPKcS7_S7_S7_EEEEvPT_SE_T0_RKT1_z
   fun:_Z13export_oepropv
   fun:_Z18init_module_PsiModv
   fun:_ZN5boost6python21handle_exception_implENS_9function0IvEE
   fun:_ZN5boost6python16handle_exceptionIPFvvEEEbT_
   fun:_ZN5boost6python6detail11init_moduleEPKcPFvvE
   fun:_PyImport_FixupExtension
   fun:_PyImport_FixupExtension
   fun:PyImport_ReloadModule
}
{
   Boost Python memort leak
   Memcheck:Leak
   fun:malloc
   fun:_Znwm
   fun:_ZN5boost6python6detail17make_function_auxIMN3psi8GridPropEKFdiENS0_21default_call_policiesENS_3mpl7vector3IdRS4_iEEN4mpl_4int_ILi0EEEEENS0_3api6objectET_RKT0_RKT1_RKSt4pairIPKNS1_7keywordESR_ET2_
   fun:_ZN5boost6python6class_IN3psi8GridPropENS_10shared_ptrIS3_EENS0_6detail13not_specifiedES7_E8def_implIS3_MS3_KFdiENS6_10def_helperIPKcS7_S7_S7_EEEEvPT_SE_T0_RKT1_z
   fun:_Z13export_oepropv
   fun:_Z18init_module_PsiModv
   fun:_ZN5boost6python21handle_exception_implENS_9function0IvEE
   fun:_ZN5boost6python16handle_exceptionIPFvvEEEbT_
   fun:_ZN5boost6python6detail11init_moduleEPKcPFvvE
   fun:_PyImport_FixupExtension
   fun:_PyImport_FixupExtension
   fun:PyImport_ReloadModule
}
{
   Boost Python memort leak
   Memcheck:Leak
   fun:malloc
   fun:_Znwm
   fun:_ZN5boost6python6detail17make_function_auxIMN3psi8GridPropEFvddENS0_21default_call_policiesENS_3mpl7vector4IvRS4_ddEEN4mpl_4int_ILi0EEEEENS0_3api6objectET_RKT0_RKT1_RKSt4pairIPKNS1_7keywordESR_ET2_
   fun:_ZN5boost6python6class_IN3psi8GridPropENS_10shared_ptrIS3_EENS0_6detail13not_specifiedES7_E8def_implIS3_MS3_FvddENS6_10def_helperIPKcS7_S7_S7_EEEEvPT_SE_T0_RKT1_z
   fun:_Z13export_oepropv
   fun:_Z18init_module_PsiModv
   fun:_ZN5boost6python21handle_exception_implENS_9function0IvEE
   fun:_ZN5boost6python16handle_exceptionIPFvvEEEbT_
   fun:_ZN5boost6python6detail11init_moduleEPKcPFvvE
   fun:_PyImport_FixupExtension
   fun:_PyImport_FixupExtension
   fun:PyImport_ReloadModule
}
{
   Boost Python memort leak
   Memcheck:Leak
   fun:malloc
   fun:_Znwm
   fun:_ZN5boost6python6detail17make_function_auxIMN3psi8GridPropEFvRKSsENS0_21default_call_policiesENS_3mpl7vector3IvRS4_S6_EEN4mpl_4int_ILi0EEEEENS0_3api6objectET_RKT0_RKT1_RKSt4pairIPKNS1_7keywordEST_ET2_
   fun:_ZN5boost6python6class_IN3psi8GridPropENS_10shared_ptrIS3_EENS0_6detail13not_specifiedES7_E8def_implIS3_MS3_FvRKSsENS6_10def_helperIPKcS7_S7_S7_EEEEvPT_SG_T0_RKT1_z
   fun:_Z13export_oepropv
   fun:_Z18init_module_PsiModv
   fun:_ZN5boost6python21handle_exception_implENS_9function0IvEE
   fun:_ZN5boost6python16handle_exceptionIPFvvEEEbT_
   fun:_ZN5boost6python6detail11init_moduleEPKcPFvvE
   fun:_PyImport_FixupExtension
   fun:_PyImport_FixupExtension
   fun:PyImport_ReloadModule
}
{
   Boost Python memort leak
   Memcheck:Leak
   fun:malloc
   fun:_Znwm
   fun:_ZN5boost6python6detail17make_function_auxIMN3psi8GridPropEFvvENS0_21default_call_policiesENS_3mpl7vector2IvRS4_EEN4mpl_4int_ILi0EEEEENS0_3api6objectET_RKT0_RKT1_RKSt4pairIPKNS1_7keywordESR_ET2_
   fun:_ZN5boost6python6class_IN3psi8GridPropENS_10shared_ptrIS3_EENS0_6detail13not_specifiedES7_E8def_implIS3_MS3_FvvENS6_10def_helperIPKcS7_S7_S7_EEEEvPT_SE_T0_RKT1_z
   fun:_Z13export_oepropv
   fun:_Z18init_module_PsiModv
   fun:_ZN5boost6python21handle_exception_implENS_9function0IvEE
   fun:_ZN5boost6python16handle_exceptionIPFvvEEEbT_
   fun:_ZN5boost6python6detail11init_moduleEPKcPFvvE
   fun:_PyImport_FixupExtension
   fun:_PyImport_FixupExtension
   fun:PyImport_ReloadModule
}
{
   Boost Python memort leak
   Memcheck:Leak
   fun:malloc
   fun:_Znwm
   fun:_ZN5boost6python6detail17make_function_auxIMN3psi6VectorEFdiENS0_21default_call_policiesENS_3mpl7vector3IdRS4_iEEN4mpl_4int_ILi0EEEEENS0_3api6objectET_RKT0_RKT1_RKSt4pairIPKNS1_7keywordESR_ET2_
   fun:_ZN5boost6python6class_IN3psi6VectorENS_10shared_ptrIS3_EENS0_6detail13not_specifiedES7_E8def_implIS3_MS3_FdiENS6_10def_helperIPKcS7_S7_S7_EEEEvPT_SE_T0_RKT1_z
   fun:_Z12export_mintsv
   fun:_Z18init_module_PsiModv
   fun:_ZN5boost6python21handle_exception_implENS_9function0IvEE
   fun:_ZN5boost6python16handle_exceptionIPFvvEEEbT_
   fun:_ZN5boost6python6detail11init_moduleEPKcPFvvE
   fun:_PyImport_FixupExtension
   fun:_PyImport_FixupExtension
   fun:PyImport_ReloadModule
}
{
   Boost Python memort leak
   Memcheck:Leak
   fun:malloc
   fun:_Znwm
   fun:_ZN5boost6python6detail17make_function_auxIMN3psi6VectorEFdiiENS0_21default_call_policiesENS_3mpl7vector4IdRS4_iiEEN4mpl_4int_ILi0EEEEENS0_3api6objectET_RKT0_RKT1_RKSt4pairIPKNS1_7keywordESR_ET2_
   fun:_ZN5boost6python6class_IN3psi6VectorENS_10shared_ptrIS3_EENS0_6detail13not_specifiedES7_E8def_implIS3_MS3_FdiiENS6_10def_helperIPKcS7_S7_S7_EEEEvPT_SE_T0_RKT1_z
   fun:_Z12export_mintsv
   fun:_Z18init_module_PsiModv
   fun:_ZN5boost6python21handle_exception_implENS_9function0IvEE
   fun:_ZN5boost6python16handle_exceptionIPFvvEEEbT_
   fun:_ZN5boost6python6detail11init_moduleEPKcPFvvE
   fun:_PyImport_FixupExtension
   fun:_PyImport_FixupExtension
   fun:PyImport_ReloadModule
}
{
   Boost Python memort leak
   Memcheck:Leak
   fun:malloc
   fun:_Znwm
   fun:_ZN5boost6python6detail17make_function_auxIMN3psi6VectorEFvidENS0_21default_call_policiesENS_3mpl7vector4IvRS4_idEEN4mpl_4int_ILi0EEEEENS0_3api6objectET_RKT0_RKT1_RKSt4pairIPKNS1_7keywordESR_ET2_
   fun:_ZN5boost6python6class_IN3psi6VectorENS_10shared_ptrIS3_EENS0_6detail13not_specifiedES7_E8def_implIS3_MS3_FvidENS6_10def_helperIPKcS7_S7_S7_EEEEvPT_SE_T0_RKT1_z
   fun:_Z12export_mintsv
   fun:_Z18init_module_PsiModv
   fun:_ZN5boost6python21handle_exception_implENS_9function0IvEE
   fun:_ZN5boost6python16handle_exceptionIPFvvEEEbT_
   fun:_ZN5boost6python6detail11init_moduleEPKcPFvvE
   fun:_PyImport_FixupExtension
   fun:_PyImport_FixupExtension
   fun:PyImport_ReloadModule
}
{
   Boost Python memort leak
   Memcheck:Leak
   fun:malloc
   fun:_Znwm
   fun:_ZN5boost6python6detail17make_function_auxIMN3psi6VectorEFviidENS0_21default_call_policiesENS_3mpl7vector5IvRS4_iidEEN4mpl_4int_ILi0EEEEENS0_3api6objectET_RKT0_RKT1_RKSt4pairIPKNS1_7keywordESR_ET2_
   fun:_ZN5boost6python6class_IN3psi6VectorENS_10shared_ptrIS3_EENS0_6detail13not_specifiedES7_E8def_implIS3_MS3_FviidENS6_10def_helperIPKcS7_S7_S7_EEEEvPT_SE_T0_RKT1_z
   fun:_Z12export_mintsv
   fun:_Z18init_module_PsiModv
   fun:_ZN5boost6python21handle_exception_implENS_9function0IvEE
   fun:_ZN5boost6python16handle_exceptionIPFvvEEEbT_
   fun:_ZN5boost6python6detail11init_moduleEPKcPFvvE
   fun:_PyImport_FixupExtension
   fun:_PyImport_FixupExtension
   fun:PyImport_ReloadModule
}
{
   Boost Python memort leak
   Memcheck:Leak
   fun:malloc
   fun:_Znwm
   fun:_ZN5boost6python6detail17make_function_auxIMN3psi6VectorEFvvENS0_21default_call_policiesENS_3mpl7vector2IvRS4_EEN4mpl_4int_ILi0EEEEENS0_3api6objectET_RKT0_RKT1_RKSt4pairIPKNS1_7keywordESR_ET2_
   fun:_ZN5boost6python6class_IN3psi6VectorENS_10shared_ptrIS3_EENS0_6detail13not_specifiedES7_E8def_implIS3_MS3_FvvENS6_10def_helperIPKcS7_S7_S7_EEEEvPT_SE_T0_RKT1_z
   fun:_Z12export_mintsv
   fun:_Z18init_module_PsiModv
   fun:_ZN5boost6python21handle_exception_implENS_9function0IvEE
   fun:_ZN5boost6python16handle_exceptionIPFvvEEEbT_
   fun:_ZN5boost6python6detail11init_moduleEPKcPFvvE
   fun:_PyImport_FixupExtension
   fun:_PyImport_FixupExtension
   fun:PyImport_ReloadModule
}
{
   Boost Python memort leak
   Memcheck:Leak
   fun:malloc
   fun:_Znwm
   fun:_ZN5boost6python6detail17make_function_auxIMN3psi6VectorEKFiiENS0_21default_call_policiesENS_3mpl7vector3IiRS4_iEEN4mpl_4int_ILi0EEEEENS0_3api6objectET_RKT0_RKT1_RKSt4pairIPKNS1_7keywordESR_ET2_
   fun:_ZN5boost6python6class_IN3psi6VectorENS_10shared_ptrIS3_EENS0_6detail13not_specifiedES7_E8def_implIS3_MS3_KFiiENS6_10def_helperIPKcS7_S7_S7_EEEEvPT_SE_T0_RKT1_z
   fun:_Z12export_mintsv
   fun:_Z18init_module_PsiModv
   fun:_ZN5boost6python21handle_exception_implENS_9function0IvEE
   fun:_ZN5boost6python16handle_exceptionIPFvvEEEbT_
   fun:_ZN5boost6python6detail11init_moduleEPKcPFvvE
   fun:_PyImport_FixupExtension
   fun:_PyImport_FixupExtension
   fun:PyImport_ReloadModule
}
{
   Boost Python memort leak
   Memcheck:Leak
   fun:malloc
   fun:_Znwm
   fun:_ZN5boost6python6detail17make_function_auxIMN3psi6VectorEFdiENS0_21default_call_policiesENS_3mpl7vector3IdRS4_iEEN4mpl_4int_ILi0EEEEENS0_3api6objectET_RKT0_RKT1_RKSt4pairIPKNS1_7keywordESR_ET2_
   fun:_ZN5boost6python6class_IN3psi6VectorENS_10shared_ptrIS3_EENS0_6detail13not_specifiedES7_E8def_implIS3_MS3_FdiENS6_10def_helperIPKcS7_S7_S7_EEEEvPT_SE_T0_RKT1_z
   fun:_Z12export_mintsv
   fun:_Z18init_module_PsiModv
   fun:_ZN5boost6python21handle_exception_implENS_9function0IvEE
   fun:_ZN5boost6python16handle_exceptionIPFvvEEEbT_
   fun:_ZN5boost6python6detail11init_moduleEPKcPFvvE
   fun:_PyImport_FixupExtension
   fun:_PyImport_FixupExtension
   fun:PyImport_ReloadModule
}
{
   Boost Python memort leak
   Memcheck:Leak
   fun:malloc
   fun:_Znwm
   fun:_ZN5boost6python6detail17make_function_auxIMN3psi6VectorEFvidENS0_21default_call_policiesENS_3mpl7vector4IvRS4_idEEN4mpl_4int_ILi0EEEEENS0_3api6objectET_RKT0_RKT1_RKSt4pairIPKNS1_7keywordESR_ET2_
   fun:_ZN5boost6python6class_IN3psi6VectorENS_10shared_ptrIS3_EENS0_6detail13not_specifiedES7_E8def_implIS3_MS3_FvidENS6_10def_helperIPKcS7_S7_S7_EEEEvPT_SE_T0_RKT1_z
   fun:_Z12export_mintsv
   fun:_Z18init_module_PsiModv
   fun:_ZN5boost6python21handle_exception_implENS_9function0IvEE
   fun:_ZN5boost6python16handle_exceptionIPFvvEEEbT_
   fun:_ZN5boost6python6detail11init_moduleEPKcPFvvE
   fun:_PyImport_FixupExtension
   fun:_PyImport_FixupExtension
   fun:PyImport_ReloadModule
}
{
   Boost Python memort leak
   Memcheck:Leak
   fun:malloc
   fun:_Znwm
   fun:_ZN5boost6python6detail17make_function_auxIMN3psi6VectorEFdRKNS0_5tupleEENS0_21default_call_policiesENS_3mpl7vector3IdRS4_S7_EEN4mpl_4int_ILi0EEEEENS0_3api6objectET_RKT0_RKT1_RKSt4pairIPKNS1_7keywordESU_ET2_
   fun:_ZN5boost6python6class_IN3psi6VectorENS_10shared_ptrIS3_EENS0_6detail13not_specifiedES7_E8def_implIS3_MS3_FdRKNS0_5tupleEENS6_10def_helperIPKcS7_S7_S7_EEEEvPT_SH_T0_RKT1_z
   fun:_Z12export_mintsv
   fun:_Z18init_module_PsiModv
   fun:_ZN5boost6python21handle_exception_implENS_9function0IvEE
   fun:_ZN5boost6python16handle_exceptionIPFvvEEEbT_
   fun:_ZN5boost6python6detail11init_moduleEPKcPFvvE
   fun:_PyImport_FixupExtension
   fun:_PyImport_FixupExtension
   fun:PyImport_ReloadModule
}
{
   Boost Python memort leak
   Memcheck:Leak
   fun:malloc
   fun:_Znwm
   fun:_ZN5boost6python6detail17make_function_auxIMN3psi6VectorEFvRKNS0_5tupleEdENS0_21default_call_policiesENS_3mpl7vector4IvRS4_S7_dEEN4mpl_4int_ILi0EEEEENS0_3api6objectET_RKT0_RKT1_RKSt4pairIPKNS1_7keywordESU_ET2_
   fun:_ZN5boost6python6class_IN3psi6VectorENS_10shared_ptrIS3_EENS0_6detail13not_specifiedES7_E8def_implIS3_MS3_FvRKNS0_5tupleEdENS6_10def_helperIPKcS7_S7_S7_EEEEvPT_SH_T0_RKT1_z
   fun:_Z12export_mintsv
   fun:_Z18init_module_PsiModv
   fun:_ZN5boost6python21handle_exception_implENS_9function0IvEE
   fun:_ZN5boost6python16handle_exceptionIPFvvEEEbT_
   fun:_ZN5boost6python6detail11init_moduleEPKcPFvvE
   fun:_PyImport_FixupExtension
   fun:_PyImport_FixupExtension
   fun:PyImport_ReloadModule
}
{
   Boost Python memort leak
   Memcheck:Leak
   fun:malloc
   fun:_Znwm
   fun:_ZN5boost6python6detail17make_function_auxIMN3psi6VectorEKFivENS0_21default_call_policiesENS_3mpl7vector2IiRS4_EEN4mpl_4int_ILi0EEEEENS0_3api6objectET_RKT0_RKT1_RKSt4pairIPKNS1_7keywordESR_ET2_
   fun:_ZN5boost6python6class_IN3psi6VectorENS_10shared_ptrIS3_EENS0_6detail13not_specifiedES7_E8def_implIS3_MS3_KFivENS6_10def_helperIPKcS7_S7_S7_EEEEvPT_SE_T0_RKT1_z
   fun:_Z12export_mintsv
   fun:_Z18init_module_PsiModv
   fun:_ZN5boost6python21handle_exception_implENS_9function0IvEE
   fun:_ZN5boost6python16handle_exceptionIPFvvEEEbT_
   fun:_ZN5boost6python6detail11init_moduleEPKcPFvvE
   fun:_PyImport_FixupExtension
   fun:_PyImport_FixupExtension
   fun:PyImport_ReloadModule
}
{
   Boost Python memort leak
   Memcheck:Leak
   fun:malloc
   fun:_Znwm
   fun:_ZN5boost6python6detail17make_function_auxIMN3psi9IntVectorEFiiiENS0_21default_call_policiesENS_3mpl7vector4IiRS4_iiEEN4mpl_4int_ILi0EEEEENS0_3api6objectET_RKT0_RKT1_RKSt4pairIPKNS1_7keywordESR_ET2_
   fun:_ZN5boost6python6class_IN3psi9IntVectorENS_10shared_ptrIS3_EENS0_6detail13not_specifiedES7_E8def_implIS3_MS3_FiiiENS6_10def_helperIPKcS7_S7_S7_EEEEvPT_SE_T0_RKT1_z
   fun:_Z12export_mintsv
   fun:_Z18init_module_PsiModv
   fun:_ZN5boost6python21handle_exception_implENS_9function0IvEE
   fun:_ZN5boost6python16handle_exceptionIPFvvEEEbT_
   fun:_ZN5boost6python6detail11init_moduleEPKcPFvvE
   fun:_PyImport_FixupExtension
   fun:_PyImport_FixupExtension
   fun:PyImport_ReloadModule
}
{
   Boost Python memort leak
   Memcheck:Leak
   fun:malloc
   fun:_Znwm
   fun:_ZN5boost6python6detail17make_function_auxIMN3psi9IntVectorEFviiiENS0_21default_call_policiesENS_3mpl7vector5IvRS4_iiiEEN4mpl_4int_ILi0EEEEENS0_3api6objectET_RKT0_RKT1_RKSt4pairIPKNS1_7keywordESR_ET2_
   fun:_ZN5boost6python6class_IN3psi9IntVectorENS_10shared_ptrIS3_EENS0_6detail13not_specifiedES7_E8def_implIS3_MS3_FviiiENS6_10def_helperIPKcS7_S7_S7_EEEEvPT_SE_T0_RKT1_z
   fun:_Z12export_mintsv
   fun:_Z18init_module_PsiModv
   fun:_ZN5boost6python21handle_exception_implENS_9function0IvEE
   fun:_ZN5boost6python16handle_exceptionIPFvvEEEbT_
   fun:_ZN5boost6python6detail11init_moduleEPKcPFvvE
   fun:_PyImport_FixupExtension
   fun:_PyImport_FixupExtension
   fun:PyImport_ReloadModule
}
{
   Boost Python memort leak
   Memcheck:Leak
   fun:malloc
   fun:_Znwm
   fun:_ZN5boost6python6detail17make_function_auxIMN3psi9IntVectorEFvvENS0_21default_call_policiesENS_3mpl7vector2IvRS4_EEN4mpl_4int_ILi0EEEEENS0_3api6objectET_RKT0_RKT1_RKSt4pairIPKNS1_7keywordESR_ET2_
   fun:_ZN5boost6python6class_IN3psi9IntVectorENS_10shared_ptrIS3_EENS0_6detail13not_specifiedES7_E8def_implIS3_MS3_FvvENS6_10def_helperIPKcS7_S7_S7_EEEEvPT_SE_T0_RKT1_z
   fun:_Z12export_mintsv
   fun:_Z18init_module_PsiModv
   fun:_ZN5boost6python21handle_exception_implENS_9function0IvEE
   fun:_ZN5boost6python16handle_exceptionIPFvvEEEbT_
   fun:_ZN5boost6python6detail11init_moduleEPKcPFvvE
   fun:_PyImport_FixupExtension
   fun:_PyImport_FixupExtension
   fun:PyImport_ReloadModule
}
{
   Boost Python memort leak
   Memcheck:Leak
   fun:malloc
   fun:_Znwm
   fun:_ZN5boost6python6detail17make_function_auxIMN3psi9IntVectorEKFiiENS0_21default_call_policiesENS_3mpl7vector3IiRS4_iEEN4mpl_4int_ILi0EEEEENS0_3api6objectET_RKT0_RKT1_RKSt4pairIPKNS1_7keywordESR_ET2_
   fun:_ZN5boost6python6class_IN3psi9IntVectorENS_10shared_ptrIS3_EENS0_6detail13not_specifiedES7_E8def_implIS3_MS3_KFiiENS6_10def_helperIPKcS7_S7_S7_EEEEvPT_SE_T0_RKT1_z
   fun:_Z12export_mintsv
   fun:_Z18init_module_PsiModv
   fun:_ZN5boost6python21handle_exception_implENS_9function0IvEE
   fun:_ZN5boost6python16handle_exceptionIPFvvEEEbT_
   fun:_ZN5boost6python6detail11init_moduleEPKcPFvvE
   fun:_PyImport_FixupExtension
   fun:_PyImport_FixupExtension
   fun:PyImport_ReloadModule
}
{
   Boost Python memort leak
   Memcheck:Leak
   fun:malloc
   fun:_Znwm
   fun:_ZN5boost6python6detail17make_function_auxIMN3psi9IntVectorEKFivENS0_21default_call_policiesENS_3mpl7vector2IiRS4_EEN4mpl_4int_ILi0EEEEENS0_3api6objectET_RKT0_RKT1_RKSt4pairIPKNS1_7keywordESR_ET2_
   fun:_ZN5boost6python6class_IN3psi9IntVectorENS_10shared_ptrIS3_EENS0_6detail13not_specifiedES7_E8def_implIS3_MS3_KFivENS6_10def_helperIPKcS7_S7_S7_EEEEvPT_SE_T0_RKT1_z
   fun:_Z12export_mintsv
   fun:_Z18init_module_PsiModv
   fun:_ZN5boost6python21handle_exception_implENS_9function0IvEE
   fun:_ZN5boost6python16handle_exceptionIPFvvEEEbT_
   fun:_ZN5boost6python6detail11init_moduleEPKcPFvvE
   fun:_PyImport_FixupExtension
   fun:_PyImport_FixupExtension
   fun:PyImport_ReloadModule
}
{
   Boost Python memort leak
   Memcheck:Leak
   fun:malloc
   fun:_Znwm
   fun:_ZN5boost6python6detail17make_function_auxIMN3psi6MatrixEFvRKSsENS0_21default_call_policiesENS_3mpl7vector3IvRS4_S6_EEN4mpl_4int_ILi0EEEEENS0_3api6objectET_RKT0_RKT1_RKSt4pairIPKNS1_7keywordEST_ET2_
   fun:_ZN5boost6python6class_IN3psi6MatrixENS_10shared_ptrIS3_EENS0_6detail13not_specifiedES7_E8def_implIS3_MS3_FvRKSsENS6_10def_helperIPKcS7_S7_S7_EEEEvPT_SG_T0_RKT1_z
   fun:_Z12export_mintsv
   fun:_Z18init_module_PsiModv
   fun:_ZN5boost6python21handle_exception_implENS_9function0IvEE
   fun:_ZN5boost6python16handle_exceptionIPFvvEEEbT_
   fun:_ZN5boost6python6detail11init_moduleEPKcPFvvE
   fun:_PyImport_FixupExtension
   fun:_PyImport_FixupExtension
   fun:PyImport_ReloadModule
}
{
   Boost Python memort leak
   Memcheck:Leak
   fun:malloc
   fun:_Znwm
   fun:_ZN5boost6python6detail17make_function_auxIMN3psi6MatrixEKFRKSsvENS0_19return_value_policyINS0_20copy_const_referenceENS0_21default_call_policiesEEENS_3mpl7vector2IS6_RS4_EEN4mpl_4int_ILi0EEEEENS0_3api6objectET_RKT0_RKT1_RKSt4pairIPKNS1_7keywordESW_ET2_
   fun:_ZN5boost6python6class_IN3psi6MatrixENS_10shared_ptrIS3_EENS0_6detail13not_specifiedES7_E8def_implIS3_MS3_KFRKSsvENS6_10def_helperINS0_19return_value_policyINS0_20copy_const_referenceENS0_21default_call_policiesEEES7_S7_S7_EEEEvPT_PKcT0_RKT1_z
   fun:_ZN5boost6python6class_IN3psi6MatrixENS_10shared_ptrIS3_EENS0_6detail13not_specifiedES7_E19def_maybe_overloadsIMS3_KFRKSsvENS0_19return_value_policyINS0_20copy_const_referenceENS0_21default_call_policiesEEEEEvPKcT_RKT0_z
   fun:_Z12export_mintsv
   fun:_Z18init_module_PsiModv
   fun:_ZN5boost6python21handle_exception_implENS_9function0IvEE
   fun:_ZN5boost6python16handle_exceptionIPFvvEEEbT_
   fun:_ZN5boost6python6detail11init_moduleEPKcPFvvE
   fun:_PyImport_FixupExtension
   fun:_PyImport_FixupExtension
}
{
   Boost Python memort leak
   Memcheck:Leak
   fun:malloc
   fun:_Znwm
   fun:_ZN5boost6python6detail17make_function_auxIMN3psi6MatrixEKFvvENS0_21default_call_policiesENS_3mpl7vector2IvRS4_EEN4mpl_4int_ILi0EEEEENS0_3api6objectET_RKT0_RKT1_RKSt4pairIPKNS1_7keywordESR_ET2_
   fun:_ZN5boost6python6class_IN3psi6MatrixENS_10shared_ptrIS3_EENS0_6detail13not_specifiedES7_E8def_implIS3_MS3_KFvvENS6_10def_helperIPKcS7_S7_S7_EEEEvPT_SE_T0_RKT1_z
   fun:_Z12export_mintsv
   fun:_Z18init_module_PsiModv
   fun:_ZN5boost6python21handle_exception_implENS_9function0IvEE
   fun:_ZN5boost6python16handle_exceptionIPFvvEEEbT_
   fun:_ZN5boost6python6detail11init_moduleEPKcPFvvE
   fun:_PyImport_FixupExtension
   fun:_PyImport_FixupExtension
   fun:PyImport_ReloadModule
}
{
   Boost Python memort leak
   Memcheck:Leak
   fun:malloc
   fun:_Znwm
   fun:_ZN5boost6python6detail17make_function_auxIMN3psi6MatrixEKFiRKiENS0_21default_call_policiesENS_3mpl7vector3IiRS4_S6_EEN4mpl_4int_ILi0EEEEENS0_3api6objectET_RKT0_RKT1_RKSt4pairIPKNS1_7keywordEST_ET2_
   fun:_ZN5boost6python6class_IN3psi6MatrixENS_10shared_ptrIS3_EENS0_6detail13not_specifiedES7_E8def_implIS3_MS3_KFiRKiENS6_10def_helperIPKcS7_S7_S7_EEEEvPT_SG_T0_RKT1_z
   fun:_Z12export_mintsv
   fun:_Z18init_module_PsiModv
   fun:_ZN5boost6python21handle_exception_implENS_9function0IvEE
   fun:_ZN5boost6python16handle_exceptionIPFvvEEEbT_
   fun:_ZN5boost6python6detail11init_moduleEPKcPFvvE
   fun:_PyImport_FixupExtension
   fun:_PyImport_FixupExtension
   fun:PyImport_ReloadModule
}
{
   Boost Python memort leak
   Memcheck:Leak
   fun:malloc
   fun:_Znwm
   fun:_ZN5boost6python6detail17make_function_auxIMN3psi6MatrixEKFiRKiENS0_21default_call_policiesENS_3mpl7vector3IiRS4_S6_EEN4mpl_4int_ILi0EEEEENS0_3api6objectET_RKT0_RKT1_RKSt4pairIPKNS1_7keywordEST_ET2_
   fun:_ZN5boost6python6class_IN3psi6MatrixENS_10shared_ptrIS3_EENS0_6detail13not_specifiedES7_E8def_implIS3_MS3_KFiRKiENS6_10def_helperIPKcS7_S7_S7_EEEEvPT_SG_T0_RKT1_z
   fun:_Z12export_mintsv
   fun:_Z18init_module_PsiModv
   fun:_ZN5boost6python21handle_exception_implENS_9function0IvEE
   fun:_ZN5boost6python16handle_exceptionIPFvvEEEbT_
   fun:_ZN5boost6python6detail11init_moduleEPKcPFvvE
   fun:_PyImport_FixupExtension
   fun:_PyImport_FixupExtension
   fun:PyImport_ReloadModule
}
{
   Boost Python memort leak
   Memcheck:Leak
   fun:malloc
   fun:_Znwm
   fun:_ZN5boost6python6detail17make_function_auxIMN3psi6MatrixEKFRKivENS0_19return_value_policyINS0_20copy_const_referenceENS0_21default_call_policiesEEENS_3mpl7vector2IS6_RS4_EEN4mpl_4int_ILi0EEEEENS0_3api6objectET_RKT0_RKT1_RKSt4pairIPKNS1_7keywordESW_ET2_
   fun:_ZN5boost6python6class_IN3psi6MatrixENS_10shared_ptrIS3_EENS0_6detail13not_specifiedES7_E8def_implIS3_MS3_KFRKivENS6_10def_helperINS0_19return_value_policyINS0_20copy_const_referenceENS0_21default_call_policiesEEES7_S7_S7_EEEEvPT_PKcT0_RKT1_z
   fun:_ZN5boost6python6class_IN3psi6MatrixENS_10shared_ptrIS3_EENS0_6detail13not_specifiedES7_E19def_maybe_overloadsIMS3_KFRKivENS0_19return_value_policyINS0_20copy_const_referenceENS0_21default_call_policiesEEEEEvPKcT_RKT0_z
   fun:_Z12export_mintsv
   fun:_Z18init_module_PsiModv
   fun:_ZN5boost6python21handle_exception_implENS_9function0IvEE
   fun:_ZN5boost6python16handle_exceptionIPFvvEEEbT_
   fun:_ZN5boost6python6detail11init_moduleEPKcPFvvE
   fun:_PyImport_FixupExtension
   fun:_PyImport_FixupExtension
}
{
   Boost Python memort leak
   Memcheck:Leak
   fun:malloc
   fun:_Znwm
   fun:_ZN5boost6python6detail17make_function_auxIMN3psi6MatrixEKFRKivENS0_19return_value_policyINS0_20copy_const_referenceENS0_21default_call_policiesEEENS_3mpl7vector2IS6_RS4_EEN4mpl_4int_ILi0EEEEENS0_3api6objectET_RKT0_RKT1_RKSt4pairIPKNS1_7keywordESW_ET2_
   fun:_ZN5boost6python6class_IN3psi6MatrixENS_10shared_ptrIS3_EENS0_6detail13not_specifiedES7_E8def_implIS3_MS3_KFRKivENS6_10def_helperINS0_19return_value_policyINS0_20copy_const_referenceENS0_21default_call_policiesEEES7_S7_S7_EEEEvPT_PKcT0_RKT1_z
   fun:_ZN5boost6python6class_IN3psi6MatrixENS_10shared_ptrIS3_EENS0_6detail13not_specifiedES7_E19def_maybe_overloadsIMS3_KFRKivENS0_19return_value_policyINS0_20copy_const_referenceENS0_21default_call_policiesEEEEEvPKcT_RKT0_z
   fun:_Z12export_mintsv
   fun:_Z18init_module_PsiModv
   fun:_ZN5boost6python21handle_exception_implENS_9function0IvEE
   fun:_ZN5boost6python16handle_exceptionIPFvvEEEbT_
   fun:_ZN5boost6python6detail11init_moduleEPKcPFvvE
   fun:_PyImport_FixupExtension
   fun:_PyImport_FixupExtension
}
{
   Boost Python memort leak
   Memcheck:Leak
   fun:malloc
   fun:_Znwm
   fun:_ZN5boost6python6detail17make_function_auxIMN3psi6MatrixEFvvENS0_21default_call_policiesENS_3mpl7vector2IvRS4_EEN4mpl_4int_ILi0EEEEENS0_3api6objectET_RKT0_RKT1_RKSt4pairIPKNS1_7keywordESR_ET2_
   fun:_ZN5boost6python6class_IN3psi6MatrixENS_10shared_ptrIS3_EENS0_6detail13not_specifiedES7_E8def_implIS3_MS3_FvvENS6_10def_helperIPKcS7_S7_S7_EEEEvPT_SE_T0_RKT1_z
   fun:_Z12export_mintsv
   fun:_Z18init_module_PsiModv
   fun:_ZN5boost6python21handle_exception_implENS_9function0IvEE
   fun:_ZN5boost6python16handle_exceptionIPFvvEEEbT_
   fun:_ZN5boost6python6detail11init_moduleEPKcPFvvE
   fun:_PyImport_FixupExtension
   fun:_PyImport_FixupExtension
   fun:PyImport_ReloadModule
}
{
   Boost Python memort leak
   Memcheck:Leak
   fun:malloc
   fun:_Znwm
   fun:_ZN5boost6python6detail17make_function_auxIMN3psi6MatrixEFvvENS0_21default_call_policiesENS_3mpl7vector2IvRS4_EEN4mpl_4int_ILi0EEEEENS0_3api6objectET_RKT0_RKT1_RKSt4pairIPKNS1_7keywordESR_ET2_
   fun:_ZN5boost6python6class_IN3psi6MatrixENS_10shared_ptrIS3_EENS0_6detail13not_specifiedES7_E8def_implIS3_MS3_FvvENS6_10def_helperIPKcS7_S7_S7_EEEEvPT_SE_T0_RKT1_z
   fun:_Z12export_mintsv
   fun:_Z18init_module_PsiModv
   fun:_ZN5boost6python21handle_exception_implENS_9function0IvEE
   fun:_ZN5boost6python16handle_exceptionIPFvvEEEbT_
   fun:_ZN5boost6python6detail11init_moduleEPKcPFvvE
   fun:_PyImport_FixupExtension
   fun:_PyImport_FixupExtension
   fun:PyImport_ReloadModule
}
{
   Boost Python memort leak
   Memcheck:Leak
   fun:malloc
   fun:_Znwm
   fun:_ZN5boost6python6detail17make_function_auxIMN3psi6MatrixEFvvENS0_21default_call_policiesENS_3mpl7vector2IvRS4_EEN4mpl_4int_ILi0EEEEENS0_3api6objectET_RKT0_RKT1_RKSt4pairIPKNS1_7keywordESR_ET2_
   fun:_ZN5boost6python6class_IN3psi6MatrixENS_10shared_ptrIS3_EENS0_6detail13not_specifiedES7_E8def_implIS3_MS3_FvvENS6_10def_helperIPKcS7_S7_S7_EEEEvPT_SE_T0_RKT1_z
   fun:_Z12export_mintsv
   fun:_Z18init_module_PsiModv
   fun:_ZN5boost6python21handle_exception_implENS_9function0IvEE
   fun:_ZN5boost6python16handle_exceptionIPFvvEEEbT_
   fun:_ZN5boost6python6detail11init_moduleEPKcPFvvE
   fun:_PyImport_FixupExtension
   fun:_PyImport_FixupExtension
   fun:PyImport_ReloadModule
}
{
   Boost Python memort leak
   Memcheck:Leak
   fun:malloc
   fun:_Znwm
   fun:_ZN5boost6python6detail17make_function_auxIMN3psi6MatrixEFvvENS0_21default_call_policiesENS_3mpl7vector2IvRS4_EEN4mpl_4int_ILi0EEEEENS0_3api6objectET_RKT0_RKT1_RKSt4pairIPKNS1_7keywordESR_ET2_
   fun:_ZN5boost6python6class_IN3psi6MatrixENS_10shared_ptrIS3_EENS0_6detail13not_specifiedES7_E8def_implIS3_MS3_FvvENS6_10def_helperIPKcS7_S7_S7_EEEEvPT_SE_T0_RKT1_z
   fun:_Z12export_mintsv
   fun:_Z18init_module_PsiModv
   fun:_ZN5boost6python21handle_exception_implENS_9function0IvEE
   fun:_ZN5boost6python16handle_exceptionIPFvvEEEbT_
   fun:_ZN5boost6python6detail11init_moduleEPKcPFvvE
   fun:_PyImport_FixupExtension
   fun:_PyImport_FixupExtension
   fun:PyImport_ReloadModule
}
{
   Boost Python memort leak
   Memcheck:Leak
   fun:malloc
   fun:_Znwm
   fun:_ZN5boost6python6detail17make_function_auxIMN3psi6MatrixEFvvENS0_21default_call_policiesENS_3mpl7vector2IvRS4_EEN4mpl_4int_ILi0EEEEENS0_3api6objectET_RKT0_RKT1_RKSt4pairIPKNS1_7keywordESR_ET2_
   fun:_ZN5boost6python6class_IN3psi6MatrixENS_10shared_ptrIS3_EENS0_6detail13not_specifiedES7_E8def_implIS3_MS3_FvvENS6_10def_helperIPKcS7_S7_S7_EEEEvPT_SE_T0_RKT1_z
   fun:_Z12export_mintsv
   fun:_Z18init_module_PsiModv
   fun:_ZN5boost6python21handle_exception_implENS_9function0IvEE
   fun:_ZN5boost6python16handle_exceptionIPFvvEEEbT_
   fun:_ZN5boost6python6detail11init_moduleEPKcPFvvE
   fun:_PyImport_FixupExtension
   fun:_PyImport_FixupExtension
   fun:PyImport_ReloadModule
}
{
   Boost Python memort leak
   Memcheck:Leak
   fun:malloc
   fun:_Znwm
   fun:_ZN5boost6python6detail17make_function_auxIMN3psi6MatrixEFvvENS0_21default_call_policiesENS_3mpl7vector2IvRS4_EEN4mpl_4int_ILi0EEEEENS0_3api6objectET_RKT0_RKT1_RKSt4pairIPKNS1_7keywordESR_ET2_
   fun:_ZN5boost6python6class_IN3psi6MatrixENS_10shared_ptrIS3_EENS0_6detail13not_specifiedES7_E8def_implIS3_MS3_FvvENS6_10def_helperIPKcS7_S7_S7_EEEEvPT_SE_T0_RKT1_z
   fun:_Z12export_mintsv
   fun:_Z18init_module_PsiModv
   fun:_ZN5boost6python21handle_exception_implENS_9function0IvEE
   fun:_ZN5boost6python16handle_exceptionIPFvvEEEbT_
   fun:_ZN5boost6python6detail11init_moduleEPKcPFvvE
   fun:_PyImport_FixupExtension
   fun:_PyImport_FixupExtension
   fun:PyImport_ReloadModule
}
{
   Boost Python memort leak
   Memcheck:Leak
   fun:malloc
   fun:_Znwm
   fun:_ZN5boost6python6detail17make_function_auxIMN3psi6MatrixEFvvENS0_21default_call_policiesENS_3mpl7vector2IvRS4_EEN4mpl_4int_ILi0EEEEENS0_3api6objectET_RKT0_RKT1_RKSt4pairIPKNS1_7keywordESR_ET2_
   fun:_ZN5boost6python6class_IN3psi6MatrixENS_10shared_ptrIS3_EENS0_6detail13not_specifiedES7_E8def_implIS3_MS3_FvvENS6_10def_helperIPKcS7_S7_S7_EEEEvPT_SE_T0_RKT1_z
   fun:_Z12export_mintsv
   fun:_Z18init_module_PsiModv
   fun:_ZN5boost6python21handle_exception_implENS_9function0IvEE
   fun:_ZN5boost6python16handle_exceptionIPFvvEEEbT_
   fun:_ZN5boost6python6detail11init_moduleEPKcPFvvE
   fun:_PyImport_FixupExtension
   fun:_PyImport_FixupExtension
   fun:PyImport_ReloadModule
}
{
   Boost Python memort leak
   Memcheck:Leak
   fun:malloc
   fun:_Znwm
   fun:_ZN5boost6python6detail17make_function_auxIMN3psi6MatrixEFdvENS0_21default_call_policiesENS_3mpl7vector2IdRS4_EEN4mpl_4int_ILi0EEEEENS0_3api6objectET_RKT0_RKT1_RKSt4pairIPKNS1_7keywordESR_ET2_
   fun:_ZN5boost6python6class_IN3psi6MatrixENS_10shared_ptrIS3_EENS0_6detail13not_specifiedES7_E8def_implIS3_MS3_FdvENS6_10def_helperIPKcS7_S7_S7_EEEEvPT_SE_T0_RKT1_z
   fun:_Z12export_mintsv
   fun:_Z18init_module_PsiModv
   fun:_ZN5boost6python21handle_exception_implENS_9function0IvEE
   fun:_ZN5boost6python16handle_exceptionIPFvvEEEbT_
   fun:_ZN5boost6python6detail11init_moduleEPKcPFvvE
   fun:_PyImport_FixupExtension
   fun:_PyImport_FixupExtension
   fun:PyImport_ReloadModule
}
{
   Boost Python memort leak
   Memcheck:Leak
   fun:malloc
   fun:_Znwm
   fun:_ZN5boost6python6detail17make_function_auxIMN3psi6MatrixEFvRKNS_10shared_ptrIS4_EEENS0_21default_call_policiesENS_3mpl7vector3IvRS4_S8_EEN4mpl_4int_ILi0EEEEENS0_3api6objectET_RKT0_RKT1_RKSt4pairIPKNS1_7keywordESV_ET2_
   fun:_ZN5boost6python6class_IN3psi6MatrixENS_10shared_ptrIS3_EENS0_6detail13not_specifiedES7_E8def_implIS3_MS3_FvRKS5_ENS6_10def_helperIPKcS7_S7_S7_EEEEvPT_SG_T0_RKT1_z
   fun:_Z12export_mintsv
   fun:_Z18init_module_PsiModv
   fun:_ZN5boost6python21handle_exception_implENS_9function0IvEE
   fun:_ZN5boost6python16handle_exceptionIPFvvEEEbT_
   fun:_ZN5boost6python6detail11init_moduleEPKcPFvvE
   fun:_PyImport_FixupExtension
   fun:_PyImport_FixupExtension
   fun:PyImport_ReloadModule
}
{
   Boost Python memort leak
   Memcheck:Leak
   fun:malloc
   fun:_Znwm
   fun:_ZN5boost6python6detail17make_function_auxIMN3psi6MatrixEFvRKNS_10shared_ptrIS4_EEENS0_21default_call_policiesENS_3mpl7vector3IvRS4_S8_EEN4mpl_4int_ILi0EEEEENS0_3api6objectET_RKT0_RKT1_RKSt4pairIPKNS1_7keywordESV_ET2_
   fun:_ZN5boost6python6class_IN3psi6MatrixENS_10shared_ptrIS3_EENS0_6detail13not_specifiedES7_E8def_implIS3_MS3_FvRKS5_ENS6_10def_helperIPKcS7_S7_S7_EEEEvPT_SG_T0_RKT1_z
   fun:_Z12export_mintsv
   fun:_Z18init_module_PsiModv
   fun:_ZN5boost6python21handle_exception_implENS_9function0IvEE
   fun:_ZN5boost6python16handle_exceptionIPFvvEEEbT_
   fun:_ZN5boost6python6detail11init_moduleEPKcPFvvE
   fun:_PyImport_FixupExtension
   fun:_PyImport_FixupExtension
   fun:PyImport_ReloadModule
}
{
   Boost Python memort leak
   Memcheck:Leak
   fun:malloc
   fun:_Znwm
   fun:_ZN5boost6python6detail17make_function_auxIMN3psi6MatrixEFvRKNS_10shared_ptrIS4_EES8_ENS0_21default_call_policiesENS_3mpl7vector4IvRS4_S8_S8_EEN4mpl_4int_ILi0EEEEENS0_3api6objectET_RKT0_RKT1_RKSt4pairIPKNS1_7keywordESV_ET2_
   fun:_ZN5boost6python6class_IN3psi6MatrixENS_10shared_ptrIS3_EENS0_6detail13not_specifiedES7_E8def_implIS3_MS3_FvRKS5_SB_ENS6_10def_helperIPKcS7_S7_S7_EEEEvPT_SG_T0_RKT1_z
   fun:_Z12export_mintsv
   fun:_Z18init_module_PsiModv
   fun:_ZN5boost6python21handle_exception_implENS_9function0IvEE
   fun:_ZN5boost6python16handle_exceptionIPFvvEEEbT_
   fun:_ZN5boost6python6detail11init_moduleEPKcPFvvE
   fun:_PyImport_FixupExtension
   fun:_PyImport_FixupExtension
   fun:PyImport_ReloadModule
}
{
   Boost Python memort leak
   Memcheck:Leak
   fun:malloc
   fun:_Znwm
   fun:_ZN5boost6python6detail17make_function_auxIMN3psi6MatrixEFvdENS0_21default_call_policiesENS_3mpl7vector3IvRS4_dEEN4mpl_4int_ILi0EEEEENS0_3api6objectET_RKT0_RKT1_RKSt4pairIPKNS1_7keywordESR_ET2_
   fun:_ZN5boost6python6class_IN3psi6MatrixENS_10shared_ptrIS3_EENS0_6detail13not_specifiedES7_E8def_implIS3_MS3_FvdENS6_10def_helperIPKcS7_S7_S7_EEEEvPT_SE_T0_RKT1_z
   fun:_Z12export_mintsv
   fun:_Z18init_module_PsiModv
   fun:_ZN5boost6python21handle_exception_implENS_9function0IvEE
   fun:_ZN5boost6python16handle_exceptionIPFvvEEEbT_
   fun:_ZN5boost6python6detail11init_moduleEPKcPFvvE
   fun:_PyImport_FixupExtension
   fun:_PyImport_FixupExtension
   fun:PyImport_ReloadModule
}
{
   Boost Python memort leak
   Memcheck:Leak
   fun:malloc
   fun:_Znwm
   fun:_ZN5boost6python6detail17make_function_auxIMN3psi6MatrixEFdvENS0_21default_call_policiesENS_3mpl7vector2IdRS4_EEN4mpl_4int_ILi0EEEEENS0_3api6objectET_RKT0_RKT1_RKSt4pairIPKNS1_7keywordESR_ET2_
   fun:_ZN5boost6python6class_IN3psi6MatrixENS_10shared_ptrIS3_EENS0_6detail13not_specifiedES7_E8def_implIS3_MS3_FdvENS6_10def_helperIPKcS7_S7_S7_EEEEvPT_SE_T0_RKT1_z
   fun:_Z12export_mintsv
   fun:_Z18init_module_PsiModv
   fun:_ZN5boost6python21handle_exception_implENS_9function0IvEE
   fun:_ZN5boost6python16handle_exceptionIPFvvEEEbT_
   fun:_ZN5boost6python6detail11init_moduleEPKcPFvvE
   fun:_PyImport_FixupExtension
   fun:_PyImport_FixupExtension
   fun:PyImport_ReloadModule
}
{
   Boost Python memort leak
   Memcheck:Leak
   fun:malloc
   fun:_Znwm
   fun:_ZN5boost6python6detail17make_function_auxIMN3psi6MatrixEFdvENS0_21default_call_policiesENS_3mpl7vector2IdRS4_EEN4mpl_4int_ILi0EEEEENS0_3api6objectET_RKT0_RKT1_RKSt4pairIPKNS1_7keywordESR_ET2_
   fun:_ZN5boost6python6class_IN3psi6MatrixENS_10shared_ptrIS3_EENS0_6detail13not_specifiedES7_E8def_implIS3_MS3_FdvENS6_10def_helperIPKcS7_S7_S7_EEEEvPT_SE_T0_RKT1_z
   fun:_Z12export_mintsv
   fun:_Z18init_module_PsiModv
   fun:_ZN5boost6python21handle_exception_implENS_9function0IvEE
   fun:_ZN5boost6python16handle_exceptionIPFvvEEEbT_
   fun:_ZN5boost6python6detail11init_moduleEPKcPFvvE
   fun:_PyImport_FixupExtension
   fun:_PyImport_FixupExtension
   fun:PyImport_ReloadModule
}
{
   Boost Python memort leak
   Memcheck:Leak
   fun:malloc
   fun:_Znwm
   fun:_ZN5boost6python6detail17make_function_auxIMN3psi6MatrixEFviidENS0_21default_call_policiesENS_3mpl7vector5IvRS4_iidEEN4mpl_4int_ILi0EEEEENS0_3api6objectET_RKT0_RKT1_RKSt4pairIPKNS1_7keywordESR_ET2_
   fun:_ZN5boost6python6class_IN3psi6MatrixENS_10shared_ptrIS3_EENS0_6detail13not_specifiedES7_E8def_implIS3_MS3_FviidENS6_10def_helperIPKcS7_S7_S7_EEEEvPT_SE_T0_RKT1_z
   fun:_Z12export_mintsv
   fun:_Z18init_module_PsiModv
   fun:_ZN5boost6python21handle_exception_implENS_9function0IvEE
   fun:_ZN5boost6python16handle_exceptionIPFvvEEEbT_
   fun:_ZN5boost6python6detail11init_moduleEPKcPFvvE
   fun:_PyImport_FixupExtension
   fun:_PyImport_FixupExtension
   fun:PyImport_ReloadModule
}
{
   Boost Python memort leak
   Memcheck:Leak
   fun:malloc
   fun:_Znwm
   fun:_ZN5boost6python6detail17make_function_auxIMN3psi6MatrixEFviidENS0_21default_call_policiesENS_3mpl7vector5IvRS4_iidEEN4mpl_4int_ILi0EEEEENS0_3api6objectET_RKT0_RKT1_RKSt4pairIPKNS1_7keywordESR_ET2_
   fun:_ZN5boost6python6class_IN3psi6MatrixENS_10shared_ptrIS3_EENS0_6detail13not_specifiedES7_E8def_implIS3_MS3_FviidENS6_10def_helperIPKcS7_S7_S7_EEEEvPT_SE_T0_RKT1_z
   fun:_Z12export_mintsv
   fun:_Z18init_module_PsiModv
   fun:_ZN5boost6python21handle_exception_implENS_9function0IvEE
   fun:_ZN5boost6python16handle_exceptionIPFvvEEEbT_
   fun:_ZN5boost6python6detail11init_moduleEPKcPFvvE
   fun:_PyImport_FixupExtension
   fun:_PyImport_FixupExtension
   fun:PyImport_ReloadModule
}
{
   Boost Python memort leak
   Memcheck:Leak
   fun:malloc
   fun:_Znwm
   fun:_ZN5boost6python6detail17make_function_auxIMN3psi6MatrixEFvRKNS_10shared_ptrIS4_EEENS0_21default_call_policiesENS_3mpl7vector3IvRS4_S8_EEN4mpl_4int_ILi0EEEEENS0_3api6objectET_RKT0_RKT1_RKSt4pairIPKNS1_7keywordESV_ET2_
   fun:_ZN5boost6python6class_IN3psi6MatrixENS_10shared_ptrIS3_EENS0_6detail13not_specifiedES7_E8def_implIS3_MS3_FvRKS5_ENS6_10def_helperIPKcS7_S7_S7_EEEEvPT_SG_T0_RKT1_z
   fun:_Z12export_mintsv
   fun:_Z18init_module_PsiModv
   fun:_ZN5boost6python21handle_exception_implENS_9function0IvEE
   fun:_ZN5boost6python16handle_exceptionIPFvvEEEbT_
   fun:_ZN5boost6python6detail11init_moduleEPKcPFvvE
   fun:_PyImport_FixupExtension
   fun:_PyImport_FixupExtension
   fun:PyImport_ReloadModule
}
{
   Boost Python memort leak
   Memcheck:Leak
   fun:malloc
   fun:_Znwm
   fun:_ZN5boost6python6detail17make_function_auxIMN3psi6MatrixEFvRKNS_10shared_ptrIS4_EES8_ENS0_21default_call_policiesENS_3mpl7vector4IvRS4_S8_S8_EEN4mpl_4int_ILi0EEEEENS0_3api6objectET_RKT0_RKT1_RKSt4pairIPKNS1_7keywordESV_ET2_
   fun:_ZN5boost6python6class_IN3psi6MatrixENS_10shared_ptrIS3_EENS0_6detail13not_specifiedES7_E8def_implIS3_MS3_FvRKS5_SB_ENS6_10def_helperIPKcS7_S7_S7_EEEEvPT_SG_T0_RKT1_z
   fun:_Z12export_mintsv
   fun:_Z18init_module_PsiModv
   fun:_ZN5boost6python21handle_exception_implENS_9function0IvEE
   fun:_ZN5boost6python16handle_exceptionIPFvvEEEbT_
   fun:_ZN5boost6python6detail11init_moduleEPKcPFvvE
   fun:_PyImport_FixupExtension
   fun:_PyImport_FixupExtension
   fun:PyImport_ReloadModule
}
{
   Boost Python memort leak
   Memcheck:Leak
   fun:malloc
   fun:_Znwm
   fun:_ZN5boost6python6detail17make_function_auxIMN3psi6MatrixEFvRKNS_10shared_ptrIS4_EEENS0_21default_call_policiesENS_3mpl7vector3IvRS4_S8_EEN4mpl_4int_ILi0EEEEENS0_3api6objectET_RKT0_RKT1_RKSt4pairIPKNS1_7keywordESV_ET2_
   fun:_ZN5boost6python6class_IN3psi6MatrixENS_10shared_ptrIS3_EENS0_6detail13not_specifiedES7_E8def_implIS3_MS3_FvRKS5_ENS6_10def_helperIPKcS7_S7_S7_EEEEvPT_SG_T0_RKT1_z
   fun:_Z12export_mintsv
   fun:_Z18init_module_PsiModv
   fun:_ZN5boost6python21handle_exception_implENS_9function0IvEE
   fun:_ZN5boost6python16handle_exceptionIPFvvEEEbT_
   fun:_ZN5boost6python6detail11init_moduleEPKcPFvvE
   fun:_PyImport_FixupExtension
   fun:_PyImport_FixupExtension
   fun:PyImport_ReloadModule
}
{
   Boost Python memort leak
   Memcheck:Leak
   fun:malloc
   fun:_Znwm
   fun:_ZN5boost6python6detail17make_function_auxIMN3psi6MatrixEFvRKNS_10shared_ptrIS4_EES8_ENS0_21default_call_policiesENS_3mpl7vector4IvRS4_S8_S8_EEN4mpl_4int_ILi0EEEEENS0_3api6objectET_RKT0_RKT1_RKSt4pairIPKNS1_7keywordESV_ET2_
   fun:_ZN5boost6python6class_IN3psi6MatrixENS_10shared_ptrIS3_EENS0_6detail13not_specifiedES7_E8def_implIS3_MS3_FvRKS5_SB_ENS6_10def_helperIPKcS7_S7_S7_EEEEvPT_SG_T0_RKT1_z
   fun:_Z12export_mintsv
   fun:_Z18init_module_PsiModv
   fun:_ZN5boost6python21handle_exception_implENS_9function0IvEE
   fun:_ZN5boost6python16handle_exceptionIPFvvEEEbT_
   fun:_ZN5boost6python6detail11init_moduleEPKcPFvvE
   fun:_PyImport_FixupExtension
   fun:_PyImport_FixupExtension
   fun:PyImport_ReloadModule
}
{
   Boost Python memort leak
   Memcheck:Leak
   fun:malloc
   fun:_Znwm
   fun:_ZN5boost6python6detail17make_function_auxIMN3psi6MatrixEFdRKNS_10shared_ptrIS4_EEENS0_21default_call_policiesENS_3mpl7vector3IdRS4_S8_EEN4mpl_4int_ILi0EEEEENS0_3api6objectET_RKT0_RKT1_RKSt4pairIPKNS1_7keywordESV_ET2_
   fun:_ZN5boost6python6class_IN3psi6MatrixENS_10shared_ptrIS3_EENS0_6detail13not_specifiedES7_E8def_implIS3_MS3_FdRKS5_ENS6_10def_helperIPKcS7_S7_S7_EEEEvPT_SG_T0_RKT1_z
   fun:_Z12export_mintsv
   fun:_Z18init_module_PsiModv
   fun:_ZN5boost6python21handle_exception_implENS_9function0IvEE
   fun:_ZN5boost6python16handle_exceptionIPFvvEEEbT_
   fun:_ZN5boost6python6detail11init_moduleEPKcPFvvE
   fun:_PyImport_FixupExtension
   fun:_PyImport_FixupExtension
   fun:PyImport_ReloadModule
}
{
   Boost Python memort leak
   Memcheck:Leak
   fun:malloc
   fun:_Znwm
   fun:_ZN5boost6python6detail17make_function_auxIMN3psi6MatrixEFvbbdRKNS_10shared_ptrIS4_EES8_dENS0_21default_call_policiesENS_3mpl7vector8IvRS4_bbdS8_S8_dEEN4mpl_4int_ILi0EEEEENS0_3api6objectET_RKT0_RKT1_RKSt4pairIPKNS1_7keywordESV_ET2_
   fun:_ZN5boost6python6class_IN3psi6MatrixENS_10shared_ptrIS3_EENS0_6detail13not_specifiedES7_E8def_implIS3_MS3_FvbbdRKS5_SB_dENS6_10def_helperIPKcS7_S7_S7_EEEEvPT_SG_T0_RKT1_z
   fun:_Z12export_mintsv
   fun:_Z18init_module_PsiModv
   fun:_ZN5boost6python21handle_exception_implENS_9function0IvEE
   fun:_ZN5boost6python16handle_exceptionIPFvvEEEbT_
   fun:_ZN5boost6python6detail11init_moduleEPKcPFvvE
   fun:_PyImport_FixupExtension
   fun:_PyImport_FixupExtension
   fun:PyImport_ReloadModule
}
{
   Boost Python memort leak
   Memcheck:Leak
   fun:malloc
   fun:_Znwm
   fun:_ZN5boost6python6detail17make_function_auxIMN3psi6MatrixEFvRNS_10shared_ptrIS4_EERNS5_INS3_6VectorEEENS4_16DiagonalizeOrderEENS0_21default_call_policiesENS_3mpl7vector5IvRS4_S7_SA_SB_EEN4mpl_4int_ILi0EEEEENS0_3api6objectET_RKT0_RKT1_RKSt4pairIPKNS1_7keywordESY_ET2_
   fun:_ZN5boost6python6class_IN3psi6MatrixENS_10shared_ptrIS3_EENS0_6detail13not_specifiedES7_E8def_implIS3_MS3_FvRS5_RNS4_INS2_6VectorEEENS3_16DiagonalizeOrderEENS6_10def_helperIPKcS7_S7_S7_EEEEvPT_SJ_T0_RKT1_z
   fun:_Z12export_mintsv
   fun:_Z18init_module_PsiModv
   fun:_ZN5boost6python21handle_exception_implENS_9function0IvEE
   fun:_ZN5boost6python16handle_exceptionIPFvvEEEbT_
   fun:_ZN5boost6python6detail11init_moduleEPKcPFvvE
   fun:_PyImport_FixupExtension
   fun:_PyImport_FixupExtension
   fun:PyImport_ReloadModule
}
{
   Boost Python memort leak
   Memcheck:Leak
   fun:malloc
   fun:_Znwm
   fun:_ZN5boost6python6detail17make_function_auxIMN3psi6MatrixEFvvENS0_21default_call_policiesENS_3mpl7vector2IvRS4_EEN4mpl_4int_ILi0EEEEENS0_3api6objectET_RKT0_RKT1_RKSt4pairIPKNS1_7keywordESR_ET2_
   fun:_ZN5boost6python6class_IN3psi6MatrixENS_10shared_ptrIS3_EENS0_6detail13not_specifiedES7_E8def_implIS3_MS3_FvvENS6_10def_helperIPKcS7_S7_S7_EEEEvPT_SE_T0_RKT1_z
   fun:_Z12export_mintsv
   fun:_Z18init_module_PsiModv
   fun:_ZN5boost6python21handle_exception_implENS_9function0IvEE
   fun:_ZN5boost6python16handle_exceptionIPFvvEEEbT_
   fun:_ZN5boost6python6detail11init_moduleEPKcPFvvE
   fun:_PyImport_FixupExtension
   fun:_PyImport_FixupExtension
   fun:PyImport_ReloadModule
}
{
   Boost Python memort leak
   Memcheck:Leak
   fun:malloc
   fun:_Znwm
   fun:_ZN5boost6python6detail17make_function_auxIMN3psi6MatrixEFNS_10shared_ptrIS4_EEdbENS0_21default_call_policiesENS_3mpl7vector4IS6_RS4_dbEEN4mpl_4int_ILi0EEEEENS0_3api6objectET_RKT0_RKT1_RKSt4pairIPKNS1_7keywordEST_ET2_
   fun:_ZN5boost6python6class_IN3psi6MatrixENS_10shared_ptrIS3_EENS0_6detail13not_specifiedES7_E8def_implIS3_MS3_FS5_dbENS6_10def_helperIPKcS7_S7_S7_EEEEvPT_SE_T0_RKT1_z
   fun:_Z12export_mintsv
   fun:_Z18init_module_PsiModv
   fun:_ZN5boost6python21handle_exception_implENS_9function0IvEE
   fun:_ZN5boost6python16handle_exceptionIPFvvEEEbT_
   fun:_ZN5boost6python6detail11init_moduleEPKcPFvvE
   fun:_PyImport_FixupExtension
   fun:_PyImport_FixupExtension
   fun:PyImport_ReloadModule
}
{
   Boost Python memort leak
   Memcheck:Leak
   fun:malloc
   fun:_Znwm
   fun:_ZN5boost6python6detail17make_function_auxIMN3psi6MatrixEFvvENS0_21default_call_policiesENS_3mpl7vector2IvRS4_EEN4mpl_4int_ILi0EEEEENS0_3api6objectET_RKT0_RKT1_RKSt4pairIPKNS1_7keywordESR_ET2_
   fun:_ZN5boost6python6class_IN3psi6MatrixENS_10shared_ptrIS3_EENS0_6detail13not_specifiedES7_E8def_implIS3_MS3_FvvENS6_10def_helperIPKcS7_S7_S7_EEEEvPT_SE_T0_RKT1_z
   fun:_Z12export_mintsv
   fun:_Z18init_module_PsiModv
   fun:_ZN5boost6python21handle_exception_implENS_9function0IvEE
   fun:_ZN5boost6python16handle_exceptionIPFvvEEEbT_
   fun:_ZN5boost6python6detail11init_moduleEPKcPFvvE
   fun:_PyImport_FixupExtension
   fun:_PyImport_FixupExtension
   fun:PyImport_ReloadModule
}
{
   Boost Python memort leak
   Memcheck:Leak
   fun:malloc
   fun:_Znwm
   fun:_ZN5boost6python6detail17make_function_auxIMN3psi6MatrixEFvddENS0_21default_call_policiesENS_3mpl7vector4IvRS4_ddEEN4mpl_4int_ILi0EEEEENS0_3api6objectET_RKT0_RKT1_RKSt4pairIPKNS1_7keywordESR_ET2_
   fun:_ZN5boost6python6class_IN3psi6MatrixENS_10shared_ptrIS3_EENS0_6detail13not_specifiedES7_E8def_implIS3_MS3_FvddENS6_10def_helperIPKcS7_S7_S7_EEEEvPT_SE_T0_RKT1_z
   fun:_Z12export_mintsv
   fun:_Z18init_module_PsiModv
   fun:_ZN5boost6python21handle_exception_implENS_9function0IvEE
   fun:_ZN5boost6python16handle_exceptionIPFvvEEEbT_
   fun:_ZN5boost6python6detail11init_moduleEPKcPFvvE
   fun:_PyImport_FixupExtension
   fun:_PyImport_FixupExtension
   fun:PyImport_ReloadModule
}
{
   Boost Python memort leak
   Memcheck:Leak
   fun:malloc
   fun:_Znwm
   fun:_ZN5boost6python6detail17make_function_auxIMN3psi6MatrixEFvvENS0_21default_call_policiesENS_3mpl7vector2IvRS4_EEN4mpl_4int_ILi0EEEEENS0_3api6objectET_RKT0_RKT1_RKSt4pairIPKNS1_7keywordESR_ET2_
   fun:_ZN5boost6python6class_IN3psi6MatrixENS_10shared_ptrIS3_EENS0_6detail13not_specifiedES7_E8def_implIS3_MS3_FvvENS6_10def_helperIPKcS7_S7_S7_EEEEvPT_SE_T0_RKT1_z
   fun:_Z12export_mintsv
   fun:_Z18init_module_PsiModv
   fun:_ZN5boost6python21handle_exception_implENS_9function0IvEE
   fun:_ZN5boost6python16handle_exceptionIPFvvEEEbT_
   fun:_ZN5boost6python6detail11init_moduleEPKcPFvvE
   fun:_PyImport_FixupExtension
   fun:_PyImport_FixupExtension
   fun:PyImport_ReloadModule
}
{
   Boost Python memort leak
   Memcheck:Leak
   fun:malloc
   fun:_Znwm
   fun:_ZN5boost6python6detail17make_function_auxIMN3psi6MatrixEKFdRKiS6_S6_ENS0_21default_call_policiesENS_3mpl7vector5IdRS4_S6_S6_S6_EEN4mpl_4int_ILi0EEEEENS0_3api6objectET_RKT0_RKT1_RKSt4pairIPKNS1_7keywordEST_ET2_
   fun:_ZN5boost6python6class_IN3psi6MatrixENS_10shared_ptrIS3_EENS0_6detail13not_specifiedES7_E8def_implIS3_MS3_KFdRKiSB_SB_ENS6_10def_helperIPKcS7_S7_S7_EEEEvPT_SG_T0_RKT1_z
   fun:_Z12export_mintsv
   fun:_Z18init_module_PsiModv
   fun:_ZN5boost6python21handle_exception_implENS_9function0IvEE
   fun:_ZN5boost6python16handle_exceptionIPFvvEEEbT_
   fun:_ZN5boost6python6detail11init_moduleEPKcPFvvE
   fun:_PyImport_FixupExtension
   fun:_PyImport_FixupExtension
   fun:PyImport_ReloadModule
}
{
   Boost Python memort leak
   Memcheck:Leak
   fun:malloc
   fun:_Znwm
   fun:_ZN5boost6python6detail17make_function_auxIMN3psi6MatrixEKFdRKiS6_ENS0_21default_call_policiesENS_3mpl7vector4IdRS4_S6_S6_EEN4mpl_4int_ILi0EEEEENS0_3api6objectET_RKT0_RKT1_RKSt4pairIPKNS1_7keywordEST_ET2_
   fun:_ZN5boost6python6class_IN3psi6MatrixENS_10shared_ptrIS3_EENS0_6detail13not_specifiedES7_E8def_implIS3_MS3_KFdRKiSB_ENS6_10def_helperIPKcS7_S7_S7_EEEEvPT_SG_T0_RKT1_z
   fun:_Z12export_mintsv
   fun:_Z18init_module_PsiModv
   fun:_ZN5boost6python21handle_exception_implENS_9function0IvEE
   fun:_ZN5boost6python16handle_exceptionIPFvvEEEbT_
   fun:_ZN5boost6python6detail11init_moduleEPKcPFvvE
   fun:_PyImport_FixupExtension
   fun:_PyImport_FixupExtension
   fun:PyImport_ReloadModule
}
{
   Boost Python memort leak
   Memcheck:Leak
   fun:malloc
   fun:_Znwm
   fun:_ZN5boost6python6detail17make_function_auxIMN3psi6MatrixEFviidENS0_21default_call_policiesENS_3mpl7vector5IvRS4_iidEEN4mpl_4int_ILi0EEEEENS0_3api6objectET_RKT0_RKT1_RKSt4pairIPKNS1_7keywordESR_ET2_
   fun:_ZN5boost6python6class_IN3psi6MatrixENS_10shared_ptrIS3_EENS0_6detail13not_specifiedES7_E8def_implIS3_MS3_FviidENS6_10def_helperIPKcS7_S7_S7_EEEEvPT_SE_T0_RKT1_z
   fun:_Z12export_mintsv
   fun:_Z18init_module_PsiModv
   fun:_ZN5boost6python21handle_exception_implENS_9function0IvEE
   fun:_ZN5boost6python16handle_exceptionIPFvvEEEbT_
   fun:_ZN5boost6python6detail11init_moduleEPKcPFvvE
   fun:_PyImport_FixupExtension
   fun:_PyImport_FixupExtension
   fun:PyImport_ReloadModule
}
{
   Boost Python memort leak
   Memcheck:Leak
   fun:malloc
   fun:_Znwm
   fun:_ZN5boost6python6detail17make_function_auxIMN3psi6MatrixEFviiidENS0_21default_call_policiesENS_3mpl7vector6IvRS4_iiidEEN4mpl_4int_ILi0EEEEENS0_3api6objectET_RKT0_RKT1_RKSt4pairIPKNS1_7keywordESR_ET2_
   fun:_ZN5boost6python6class_IN3psi6MatrixENS_10shared_ptrIS3_EENS0_6detail13not_specifiedES7_E8def_implIS3_MS3_FviiidENS6_10def_helperIPKcS7_S7_S7_EEEEvPT_SE_T0_RKT1_z
   fun:_Z12export_mintsv
   fun:_Z18init_module_PsiModv
   fun:_ZN5boost6python21handle_exception_implENS_9function0IvEE
   fun:_ZN5boost6python16handle_exceptionIPFvvEEEbT_
   fun:_ZN5boost6python6detail11init_moduleEPKcPFvvE
   fun:_PyImport_FixupExtension
   fun:_PyImport_FixupExtension
   fun:PyImport_ReloadModule
}
{
   Boost Python memort leak
   Memcheck:Leak
   fun:malloc
   fun:_Znwm
   fun:_ZN5boost6python6detail17make_function_auxIMN3psi6MatrixEFvRKNS0_4listEENS0_21default_call_policiesENS_3mpl7vector3IvRS4_S7_EEN4mpl_4int_ILi0EEEEENS0_3api6objectET_RKT0_RKT1_RKSt4pairIPKNS1_7keywordESU_ET2_
   fun:_ZN5boost6python6class_IN3psi6MatrixENS_10shared_ptrIS3_EENS0_6detail13not_specifiedES7_E8def_implIS3_MS3_FvRKNS0_4listEENS6_10def_helperIPKcS7_S7_S7_EEEEvPT_SH_T0_RKT1_z
   fun:_Z12export_mintsv
   fun:_Z18init_module_PsiModv
   fun:_ZN5boost6python21handle_exception_implENS_9function0IvEE
   fun:_ZN5boost6python16handle_exceptionIPFvvEEEbT_
   fun:_ZN5boost6python6detail11init_moduleEPKcPFvvE
   fun:_PyImport_FixupExtension
   fun:_PyImport_FixupExtension
   fun:PyImport_ReloadModule
}
{
   Boost Python memort leak
   Memcheck:Leak
   fun:malloc
   fun:_Znwm
   fun:_ZN5boost6python6detail17make_function_auxIMN3psi6MatrixEFvRS4_ENS0_21default_call_policiesENS_3mpl7vector3IvS5_S5_EEN4mpl_4int_ILi0EEEEENS0_3api6objectET_RKT0_RKT1_RKSt4pairIPKNS1_7keywordESR_ET2_
   fun:_ZN5boost6python6class_IN3psi6MatrixENS_10shared_ptrIS3_EENS0_6detail13not_specifiedES7_E8def_implIS3_MS3_FvRS3_ENS6_10def_helperIPKcS7_S7_S7_EEEEvPT_SF_T0_RKT1_z
   fun:_Z12export_mintsv
   fun:_Z18init_module_PsiModv
   fun:_ZN5boost6python21handle_exception_implENS_9function0IvEE
   fun:_ZN5boost6python16handle_exceptionIPFvvEEEbT_
   fun:_ZN5boost6python6detail11init_moduleEPKcPFvvE
   fun:_PyImport_FixupExtension
   fun:_PyImport_FixupExtension
   fun:PyImport_ReloadModule
}
{
   Boost Python memort leak
   Memcheck:Leak
   fun:malloc
   fun:_Znwm
   fun:_ZN5boost6python6detail17make_function_auxIMN3psi6MatrixEFdRKNS0_5tupleEENS0_21default_call_policiesENS_3mpl7vector3IdRS4_S7_EEN4mpl_4int_ILi0EEEEENS0_3api6objectET_RKT0_RKT1_RKSt4pairIPKNS1_7keywordESU_ET2_
   fun:_ZN5boost6python6class_IN3psi6MatrixENS_10shared_ptrIS3_EENS0_6detail13not_specifiedES7_E8def_implIS3_MS3_FdRKNS0_5tupleEENS6_10def_helperIPKcS7_S7_S7_EEEEvPT_SH_T0_RKT1_z
   fun:_Z12export_mintsv
   fun:_Z18init_module_PsiModv
   fun:_ZN5boost6python21handle_exception_implENS_9function0IvEE
   fun:_ZN5boost6python16handle_exceptionIPFvvEEEbT_
   fun:_ZN5boost6python6detail11init_moduleEPKcPFvvE
   fun:_PyImport_FixupExtension
   fun:_PyImport_FixupExtension
   fun:PyImport_ReloadModule
}
{
   Boost Python memort leak
   Memcheck:Leak
   fun:malloc
   fun:_Znwm
   fun:_ZN5boost6python6detail17make_function_auxIMN3psi6MatrixEFvRKNS0_5tupleEdENS0_21default_call_policiesENS_3mpl7vector4IvRS4_S7_dEEN4mpl_4int_ILi0EEEEENS0_3api6objectET_RKT0_RKT1_RKSt4pairIPKNS1_7keywordESU_ET2_
   fun:_ZN5boost6python6class_IN3psi6MatrixENS_10shared_ptrIS3_EENS0_6detail13not_specifiedES7_E8def_implIS3_MS3_FvRKNS0_5tupleEdENS6_10def_helperIPKcS7_S7_S7_EEEEvPT_SH_T0_RKT1_z
   fun:_Z12export_mintsv
   fun:_Z18init_module_PsiModv
   fun:_ZN5boost6python21handle_exception_implENS_9function0IvEE
   fun:_ZN5boost6python16handle_exceptionIPFvvEEEbT_
   fun:_ZN5boost6python6detail11init_moduleEPKcPFvvE
   fun:_PyImport_FixupExtension
   fun:_PyImport_FixupExtension
   fun:PyImport_ReloadModule
}
{
   Boost Python memort leak
   Memcheck:Leak
   fun:malloc
   fun:_Znwm
   fun:_ZN5boost6python6detail17make_function_auxIMN3psi6MatrixEFvRKSsbbbENS0_21default_call_policiesENS_3mpl7vector6IvRS4_S6_bbbEEN4mpl_4int_ILi0EEEEENS0_3api6objectET_RKT0_RKT1_RKSt4pairIPKNS1_7keywordEST_ET2_
   fun:_ZN5boost6python6class_IN3psi6MatrixENS_10shared_ptrIS3_EENS0_6detail13not_specifiedES7_E8def_implIS3_MS3_FvRKSsbbbENS6_10def_helperIPKcS7_S7_S7_EEEEvPT_SG_T0_RKT1_z
   fun:_Z12export_mintsv
   fun:_Z18init_module_PsiModv
   fun:_ZN5boost6python21handle_exception_implENS_9function0IvEE
   fun:_ZN5boost6python16handle_exceptionIPFvvEEEbT_
   fun:_ZN5boost6python6detail11init_moduleEPKcPFvvE
   fun:_PyImport_FixupExtension
   fun:_PyImport_FixupExtension
   fun:PyImport_ReloadModule
}
{
   Boost Python memort leak
   Memcheck:Leak
   fun:malloc
   fun:_Znwm
   fun:_ZN5boost6python6detail17make_function_auxIMN3psi6MatrixEFvRKSsENS0_21default_call_policiesENS_3mpl7vector3IvRS4_S6_EEN4mpl_4int_ILi0EEEEENS0_3api6objectET_RKT0_RKT1_RKSt4pairIPKNS1_7keywordEST_ET2_
   fun:_ZN5boost6python6class_IN3psi6MatrixENS_10shared_ptrIS3_EENS0_6detail13not_specifiedES7_E8def_implIS3_MS3_FvRKSsENS6_10def_helperIPKcS7_S7_S7_EEEEvPT_SG_T0_RKT1_z
   fun:_Z12export_mintsv
   fun:_Z18init_module_PsiModv
   fun:_ZN5boost6python21handle_exception_implENS_9function0IvEE
   fun:_ZN5boost6python16handle_exceptionIPFvvEEEbT_
   fun:_ZN5boost6python6detail11init_moduleEPKcPFvvE
   fun:_PyImport_FixupExtension
   fun:_PyImport_FixupExtension
   fun:PyImport_ReloadModule
}
{
   Boost Python memort leak
   Memcheck:Leak
   fun:malloc
   fun:_Znwm
   fun:_ZN5boost6python6detail17make_function_auxIMN3psi11MintsHelperEKFNS_10shared_ptrINS3_8BasisSetEEEvENS0_21default_call_policiesENS_3mpl7vector2IS7_RS4_EEN4mpl_4int_ILi0EEEEENS0_3api6objectET_RKT0_RKT1_RKSt4pairIPKNS1_7keywordESU_ET2_
   fun:_ZN5boost6python6class_IN3psi11MintsHelperENS_10shared_ptrIS3_EENS0_6detail13not_specifiedES7_E8def_implIS3_MS3_KFNS4_INS2_8BasisSetEEEvENS6_10def_helperIPKcS7_S7_S7_EEEEvPT_SG_T0_RKT1_z
   fun:_Z12export_mintsv
   fun:_Z18init_module_PsiModv
   fun:_ZN5boost6python21handle_exception_implENS_9function0IvEE
   fun:_ZN5boost6python16handle_exceptionIPFvvEEEbT_
   fun:_ZN5boost6python6detail11init_moduleEPKcPFvvE
   fun:_PyImport_FixupExtension
   fun:_PyImport_FixupExtension
   fun:PyImport_ReloadModule
}
{
   Boost Python memort leak
   Memcheck:Leak
   fun:malloc
   fun:_Znwm
   fun:_ZN5boost6python6detail17make_function_auxIMN3psi11MintsHelperEKFNS_10shared_ptrINS3_10SOBasisSetEEEvENS0_21default_call_policiesENS_3mpl7vector2IS7_RS4_EEN4mpl_4int_ILi0EEEEENS0_3api6objectET_RKT0_RKT1_RKSt4pairIPKNS1_7keywordESU_ET2_
   fun:_ZN5boost6python6class_IN3psi11MintsHelperENS_10shared_ptrIS3_EENS0_6detail13not_specifiedES7_E8def_implIS3_MS3_KFNS4_INS2_10SOBasisSetEEEvENS6_10def_helperIPKcS7_S7_S7_EEEEvPT_SG_T0_RKT1_z
   fun:_Z12export_mintsv
   fun:_Z18init_module_PsiModv
   fun:_ZN5boost6python21handle_exception_implENS_9function0IvEE
   fun:_ZN5boost6python16handle_exceptionIPFvvEEEbT_
   fun:_ZN5boost6python6detail11init_moduleEPKcPFvvE
   fun:_PyImport_FixupExtension
   fun:_PyImport_FixupExtension
   fun:PyImport_ReloadModule
}
{
   Boost Python memort leak
   Memcheck:Leak
   fun:malloc
   fun:_Znwm
   fun:_ZN5boost6python6detail17make_function_auxIMN3psi11MintsHelperEKFNS_10shared_ptrINS3_13MatrixFactoryEEEvENS0_21default_call_policiesENS_3mpl7vector2IS7_RS4_EEN4mpl_4int_ILi0EEEEENS0_3api6objectET_RKT0_RKT1_RKSt4pairIPKNS1_7keywordESU_ET2_
   fun:_ZN5boost6python6class_IN3psi11MintsHelperENS_10shared_ptrIS3_EENS0_6detail13not_specifiedES7_E8def_implIS3_MS3_KFNS4_INS2_13MatrixFactoryEEEvENS6_10def_helperIPKcS7_S7_S7_EEEEvPT_SG_T0_RKT1_z
   fun:_Z12export_mintsv
   fun:_Z18init_module_PsiModv
   fun:_ZN5boost6python21handle_exception_implENS_9function0IvEE
   fun:_ZN5boost6python16handle_exceptionIPFvvEEEbT_
   fun:_ZN5boost6python6detail11init_moduleEPKcPFvvE
   fun:_PyImport_FixupExtension
   fun:_PyImport_FixupExtension
   fun:PyImport_ReloadModule
}
{
   Boost Python memort leak
   Memcheck:Leak
   fun:malloc
   fun:_Znwm
   fun:_ZN5boost6python6detail17make_function_auxIMN3psi11MintsHelperEFNS_10shared_ptrINS3_6MatrixEEEvENS0_21default_call_policiesENS_3mpl7vector2IS7_RS4_EEN4mpl_4int_ILi0EEEEENS0_3api6objectET_RKT0_RKT1_RKSt4pairIPKNS1_7keywordESU_ET2_
   fun:_ZN5boost6python6class_IN3psi11MintsHelperENS_10shared_ptrIS3_EENS0_6detail13not_specifiedES7_E8def_implIS3_MS3_FNS4_INS2_6MatrixEEEvENS6_10def_helperIPKcS7_S7_S7_EEEEvPT_SG_T0_RKT1_z
   fun:_Z12export_mintsv
   fun:_Z18init_module_PsiModv
   fun:_ZN5boost6python21handle_exception_implENS_9function0IvEE
   fun:_ZN5boost6python16handle_exceptionIPFvvEEEbT_
   fun:_ZN5boost6python6detail11init_moduleEPKcPFvvE
   fun:_PyImport_FixupExtension
   fun:_PyImport_FixupExtension
   fun:PyImport_ReloadModule
}
{
   Boost Python memort leak
   Memcheck:Leak
   fun:malloc
   fun:_Znwm
   fun:_ZN5boost6python6detail17make_function_auxIMN3psi11MintsHelperEFNS_10shared_ptrINS3_6MatrixEEEvENS0_21default_call_policiesENS_3mpl7vector2IS7_RS4_EEN4mpl_4int_ILi0EEEEENS0_3api6objectET_RKT0_RKT1_RKSt4pairIPKNS1_7keywordESU_ET2_
   fun:_ZN5boost6python6class_IN3psi11MintsHelperENS_10shared_ptrIS3_EENS0_6detail13not_specifiedES7_E8def_implIS3_MS3_FNS4_INS2_6MatrixEEEvENS6_10def_helperIPKcS7_S7_S7_EEEEvPT_SG_T0_RKT1_z
   fun:_Z12export_mintsv
   fun:_Z18init_module_PsiModv
   fun:_ZN5boost6python21handle_exception_implENS_9function0IvEE
   fun:_ZN5boost6python16handle_exceptionIPFvvEEEbT_
   fun:_ZN5boost6python6detail11init_moduleEPKcPFvvE
   fun:_PyImport_FixupExtension
   fun:_PyImport_FixupExtension
   fun:PyImport_ReloadModule
}
{
   Boost Python memort leak
   Memcheck:Leak
   fun:malloc
   fun:_Znwm
   fun:_ZN5boost6python6detail17make_function_auxIMN3psi11MintsHelperEFNS_10shared_ptrINS3_6MatrixEEEvENS0_21default_call_policiesENS_3mpl7vector2IS7_RS4_EEN4mpl_4int_ILi0EEEEENS0_3api6objectET_RKT0_RKT1_RKSt4pairIPKNS1_7keywordESU_ET2_
   fun:_ZN5boost6python6class_IN3psi11MintsHelperENS_10shared_ptrIS3_EENS0_6detail13not_specifiedES7_E8def_implIS3_MS3_FNS4_INS2_6MatrixEEEvENS6_10def_helperIPKcS7_S7_S7_EEEEvPT_SG_T0_RKT1_z
   fun:_Z12export_mintsv
   fun:_Z18init_module_PsiModv
   fun:_ZN5boost6python21handle_exception_implENS_9function0IvEE
   fun:_ZN5boost6python16handle_exceptionIPFvvEEEbT_
   fun:_ZN5boost6python6detail11init_moduleEPKcPFvvE
   fun:_PyImport_FixupExtension
   fun:_PyImport_FixupExtension
   fun:PyImport_ReloadModule
}
{
   Boost Python memort leak
   Memcheck:Leak
   fun:malloc
   fun:_Znwm
   fun:_ZN5boost6python6detail17make_function_auxIMN3psi11MintsHelperEFvvENS0_21default_call_policiesENS_3mpl7vector2IvRS4_EEN4mpl_4int_ILi0EEEEENS0_3api6objectET_RKT0_RKT1_RKSt4pairIPKNS1_7keywordESR_ET2_
   fun:_ZN5boost6python6class_IN3psi11MintsHelperENS_10shared_ptrIS3_EENS0_6detail13not_specifiedES7_E8def_implIS3_MS3_FvvENS6_10def_helperIPKcS7_S7_S7_EEEEvPT_SE_T0_RKT1_z
   fun:_Z12export_mintsv
   fun:_Z18init_module_PsiModv
   fun:_ZN5boost6python21handle_exception_implENS_9function0IvEE
   fun:_ZN5boost6python16handle_exceptionIPFvvEEEbT_
   fun:_ZN5boost6python6detail11init_moduleEPKcPFvvE
   fun:_PyImport_FixupExtension
   fun:_PyImport_FixupExtension
   fun:PyImport_ReloadModule
}
{
   Boost Python memort leak
   Memcheck:Leak
   fun:malloc
   fun:_Znwm
   fun:_ZN5boost6python6detail17make_function_auxIMN3psi11MintsHelperEFNS_10shared_ptrINS3_6MatrixEEEvENS0_21default_call_policiesENS_3mpl7vector2IS7_RS4_EEN4mpl_4int_ILi0EEEEENS0_3api6objectET_RKT0_RKT1_RKSt4pairIPKNS1_7keywordESU_ET2_
   fun:_ZN5boost6python6class_IN3psi11MintsHelperENS_10shared_ptrIS3_EENS0_6detail13not_specifiedES7_E8def_implIS3_MS3_FNS4_INS2_6MatrixEEEvENS6_10def_helperIPKcS7_S7_S7_EEEEvPT_SG_T0_RKT1_z
   fun:_Z12export_mintsv
   fun:_Z18init_module_PsiModv
   fun:_ZN5boost6python21handle_exception_implENS_9function0IvEE
   fun:_ZN5boost6python16handle_exceptionIPFvvEEEbT_
   fun:_ZN5boost6python6detail11init_moduleEPKcPFvvE
   fun:_PyImport_FixupExtension
   fun:_PyImport_FixupExtension
   fun:PyImport_ReloadModule
}
{
   Boost Python memort leak
   Memcheck:Leak
   fun:malloc
   fun:_Znwm
   fun:_ZN5boost6python6detail17make_function_auxIMN3psi11MintsHelperEFNS_10shared_ptrINS3_6MatrixEEEvENS0_21default_call_policiesENS_3mpl7vector2IS7_RS4_EEN4mpl_4int_ILi0EEEEENS0_3api6objectET_RKT0_RKT1_RKSt4pairIPKNS1_7keywordESU_ET2_
   fun:_ZN5boost6python6class_IN3psi11MintsHelperENS_10shared_ptrIS3_EENS0_6detail13not_specifiedES7_E8def_implIS3_MS3_FNS4_INS2_6MatrixEEEvENS6_10def_helperIPKcS7_S7_S7_EEEEvPT_SG_T0_RKT1_z
   fun:_Z12export_mintsv
   fun:_Z18init_module_PsiModv
   fun:_ZN5boost6python21handle_exception_implENS_9function0IvEE
   fun:_ZN5boost6python16handle_exceptionIPFvvEEEbT_
   fun:_ZN5boost6python6detail11init_moduleEPKcPFvvE
   fun:_PyImport_FixupExtension
   fun:_PyImport_FixupExtension
   fun:PyImport_ReloadModule
}
{
   Boost Python memort leak
   Memcheck:Leak
   fun:malloc
   fun:_Znwm
   fun:_ZN5boost6python6detail17make_function_auxIMN3psi11MintsHelperEFNS_10shared_ptrINS3_6MatrixEEEvENS0_21default_call_policiesENS_3mpl7vector2IS7_RS4_EEN4mpl_4int_ILi0EEEEENS0_3api6objectET_RKT0_RKT1_RKSt4pairIPKNS1_7keywordESU_ET2_
   fun:_ZN5boost6python6class_IN3psi11MintsHelperENS_10shared_ptrIS3_EENS0_6detail13not_specifiedES7_E8def_implIS3_MS3_FNS4_INS2_6MatrixEEEvENS6_10def_helperIPKcS7_S7_S7_EEEEvPT_SG_T0_RKT1_z
   fun:_Z12export_mintsv
   fun:_Z18init_module_PsiModv
   fun:_ZN5boost6python21handle_exception_implENS_9function0IvEE
   fun:_ZN5boost6python16handle_exceptionIPFvvEEEbT_
   fun:_ZN5boost6python6detail11init_moduleEPKcPFvvE
   fun:_PyImport_FixupExtension
   fun:_PyImport_FixupExtension
   fun:PyImport_ReloadModule
}
{
   Boost Python memort leak
   Memcheck:Leak
   fun:malloc
   fun:_Znwm
   fun:_ZN5boost6python6detail17make_function_auxIMN3psi11MintsHelperEFSt6vectorINS_10shared_ptrINS3_6MatrixEEESaIS8_EEvENS0_21default_call_policiesENS_3mpl7vector2ISA_RS4_EEN4mpl_4int_ILi0EEEEENS0_3api6objectET_RKT0_RKT1_RKSt4pairIPKNS1_7keywordESX_ET2_
   fun:_ZN5boost6python6class_IN3psi11MintsHelperENS_10shared_ptrIS3_EENS0_6detail13not_specifiedES7_E8def_implIS3_MS3_FSt6vectorINS4_INS2_6MatrixEEESaISC_EEvENS6_10def_helperIPKcS7_S7_S7_EEEEvPT_SJ_T0_RKT1_z
   fun:_Z12export_mintsv
   fun:_Z18init_module_PsiModv
   fun:_ZN5boost6python21handle_exception_implENS_9function0IvEE
   fun:_ZN5boost6python16handle_exceptionIPFvvEEEbT_
   fun:_ZN5boost6python6detail11init_moduleEPKcPFvvE
   fun:_PyImport_FixupExtension
   fun:_PyImport_FixupExtension
   fun:PyImport_ReloadModule
}
{
   Boost Python memort leak
   Memcheck:Leak
   fun:malloc
   fun:_Znwm
   fun:_ZN5boost6python6detail17make_function_auxIMN3psi11MintsHelperEFSt6vectorINS_10shared_ptrINS3_6MatrixEEESaIS8_EEvENS0_21default_call_policiesENS_3mpl7vector2ISA_RS4_EEN4mpl_4int_ILi0EEEEENS0_3api6objectET_RKT0_RKT1_RKSt4pairIPKNS1_7keywordESX_ET2_
   fun:_ZN5boost6python6class_IN3psi11MintsHelperENS_10shared_ptrIS3_EENS0_6detail13not_specifiedES7_E8def_implIS3_MS3_FSt6vectorINS4_INS2_6MatrixEEESaISC_EEvENS6_10def_helperIPKcS7_S7_S7_EEEEvPT_SJ_T0_RKT1_z
   fun:_Z12export_mintsv
   fun:_Z18init_module_PsiModv
   fun:_ZN5boost6python21handle_exception_implENS_9function0IvEE
   fun:_ZN5boost6python16handle_exceptionIPFvvEEEbT_
   fun:_ZN5boost6python6detail11init_moduleEPKcPFvvE
   fun:_PyImport_FixupExtension
   fun:_PyImport_FixupExtension
   fun:PyImport_ReloadModule
}
{
   Boost Python memort leak
   Memcheck:Leak
   fun:malloc
   fun:_Znwm
   fun:_ZN5boost6python6detail17make_function_auxIMN3psi11MintsHelperEFSt6vectorINS_10shared_ptrINS3_6MatrixEEESaIS8_EEvENS0_21default_call_policiesENS_3mpl7vector2ISA_RS4_EEN4mpl_4int_ILi0EEEEENS0_3api6objectET_RKT0_RKT1_RKSt4pairIPKNS1_7keywordESX_ET2_
   fun:_ZN5boost6python6class_IN3psi11MintsHelperENS_10shared_ptrIS3_EENS0_6detail13not_specifiedES7_E8def_implIS3_MS3_FSt6vectorINS4_INS2_6MatrixEEESaISC_EEvENS6_10def_helperIPKcS7_S7_S7_EEEEvPT_SJ_T0_RKT1_z
   fun:_Z12export_mintsv
   fun:_Z18init_module_PsiModv
   fun:_ZN5boost6python21handle_exception_implENS_9function0IvEE
   fun:_ZN5boost6python16handle_exceptionIPFvvEEEbT_
   fun:_ZN5boost6python6detail11init_moduleEPKcPFvvE
   fun:_PyImport_FixupExtension
   fun:_PyImport_FixupExtension
   fun:PyImport_ReloadModule
}
{
   Boost Python memort leak
   Memcheck:Leak
   fun:malloc
   fun:_Znwm
   fun:_ZN5boost6python6detail17make_function_auxIMN3psi11MintsHelperEFSt6vectorINS_10shared_ptrINS3_6MatrixEEESaIS8_EEvENS0_21default_call_policiesENS_3mpl7vector2ISA_RS4_EEN4mpl_4int_ILi0EEEEENS0_3api6objectET_RKT0_RKT1_RKSt4pairIPKNS1_7keywordESX_ET2_
   fun:_ZN5boost6python6class_IN3psi11MintsHelperENS_10shared_ptrIS3_EENS0_6detail13not_specifiedES7_E8def_implIS3_MS3_FSt6vectorINS4_INS2_6MatrixEEESaISC_EEvENS6_10def_helperIPKcS7_S7_S7_EEEEvPT_SJ_T0_RKT1_z
   fun:_Z12export_mintsv
   fun:_Z18init_module_PsiModv
   fun:_ZN5boost6python21handle_exception_implENS_9function0IvEE
   fun:_ZN5boost6python16handle_exceptionIPFvvEEEbT_
   fun:_ZN5boost6python6detail11init_moduleEPKcPFvvE
   fun:_PyImport_FixupExtension
   fun:_PyImport_FixupExtension
   fun:PyImport_ReloadModule
}
{
   Boost Python memort leak
   Memcheck:Leak
   fun:malloc
   fun:_Znwm
   fun:_ZN5boost6python6detail17make_function_auxIMN3psi11MintsHelperEFSt6vectorINS_10shared_ptrINS3_6MatrixEEESaIS8_EEvENS0_21default_call_policiesENS_3mpl7vector2ISA_RS4_EEN4mpl_4int_ILi0EEEEENS0_3api6objectET_RKT0_RKT1_RKSt4pairIPKNS1_7keywordESX_ET2_
   fun:_ZN5boost6python6class_IN3psi11MintsHelperENS_10shared_ptrIS3_EENS0_6detail13not_specifiedES7_E8def_implIS3_MS3_FSt6vectorINS4_INS2_6MatrixEEESaISC_EEvENS6_10def_helperIPKcS7_S7_S7_EEEEvPT_SJ_T0_RKT1_z
   fun:_Z12export_mintsv
   fun:_Z18init_module_PsiModv
   fun:_ZN5boost6python21handle_exception_implENS_9function0IvEE
   fun:_ZN5boost6python16handle_exceptionIPFvvEEEbT_
   fun:_ZN5boost6python6detail11init_moduleEPKcPFvvE
   fun:_PyImport_FixupExtension
   fun:_PyImport_FixupExtension
   fun:PyImport_ReloadModule
}
{
   Boost Python memort leak
   Memcheck:Leak
   fun:malloc
   fun:_Znwm
   fun:_ZN5boost6python6detail17make_function_auxIMN3psi11MintsHelperEFSt6vectorINS_10shared_ptrINS3_6MatrixEEESaIS8_EEvENS0_21default_call_policiesENS_3mpl7vector2ISA_RS4_EEN4mpl_4int_ILi0EEEEENS0_3api6objectET_RKT0_RKT1_RKSt4pairIPKNS1_7keywordESX_ET2_
   fun:_ZN5boost6python6class_IN3psi11MintsHelperENS_10shared_ptrIS3_EENS0_6detail13not_specifiedES7_E8def_implIS3_MS3_FSt6vectorINS4_INS2_6MatrixEEESaISC_EEvENS6_10def_helperIPKcS7_S7_S7_EEEEvPT_SJ_T0_RKT1_z
   fun:_Z12export_mintsv
   fun:_Z18init_module_PsiModv
   fun:_ZN5boost6python21handle_exception_implENS_9function0IvEE
   fun:_ZN5boost6python16handle_exceptionIPFvvEEEbT_
   fun:_ZN5boost6python6detail11init_moduleEPKcPFvvE
   fun:_PyImport_FixupExtension
   fun:_PyImport_FixupExtension
   fun:PyImport_ReloadModule
}
{
   Boost Python memort leak
   Memcheck:Leak
   fun:malloc
   fun:_Znwm
   fun:_ZN5boost6python6detail17make_function_auxIMN3psi11MintsHelperEFSt6vectorINS_10shared_ptrINS3_6MatrixEEESaIS8_EEvENS0_21default_call_policiesENS_3mpl7vector2ISA_RS4_EEN4mpl_4int_ILi0EEEEENS0_3api6objectET_RKT0_RKT1_RKSt4pairIPKNS1_7keywordESX_ET2_
   fun:_ZN5boost6python6class_IN3psi11MintsHelperENS_10shared_ptrIS3_EENS0_6detail13not_specifiedES7_E8def_implIS3_MS3_FSt6vectorINS4_INS2_6MatrixEEESaISC_EEvENS6_10def_helperIPKcS7_S7_S7_EEEEvPT_SJ_T0_RKT1_z
   fun:_Z12export_mintsv
   fun:_Z18init_module_PsiModv
   fun:_ZN5boost6python21handle_exception_implENS_9function0IvEE
   fun:_ZN5boost6python16handle_exceptionIPFvvEEEbT_
   fun:_ZN5boost6python6detail11init_moduleEPKcPFvvE
   fun:_PyImport_FixupExtension
   fun:_PyImport_FixupExtension
   fun:PyImport_ReloadModule
}
{
   Boost Python memort leak
   Memcheck:Leak
   fun:malloc
   fun:_Znwm
   fun:_ZN5boost6python6detail17make_function_auxIMN3psi11MintsHelperEFNS_10shared_ptrINS3_6MatrixEEEvENS0_21default_call_policiesENS_3mpl7vector2IS7_RS4_EEN4mpl_4int_ILi0EEEEENS0_3api6objectET_RKT0_RKT1_RKSt4pairIPKNS1_7keywordESU_ET2_
   fun:_ZN5boost6python6class_IN3psi11MintsHelperENS_10shared_ptrIS3_EENS0_6detail13not_specifiedES7_E8def_implIS3_MS3_FNS4_INS2_6MatrixEEEvENS6_10def_helperIPKcS7_S7_S7_EEEEvPT_SG_T0_RKT1_z
   fun:_Z12export_mintsv
   fun:_Z18init_module_PsiModv
   fun:_ZN5boost6python21handle_exception_implENS_9function0IvEE
   fun:_ZN5boost6python16handle_exceptionIPFvvEEEbT_
   fun:_ZN5boost6python6detail11init_moduleEPKcPFvvE
   fun:_PyImport_FixupExtension
   fun:_PyImport_FixupExtension
   fun:PyImport_ReloadModule
}
{
   Boost Python memort leak
   Memcheck:Leak
   fun:malloc
   fun:_Znwm
   fun:_ZN5boost6python6detail17make_function_auxIMN3psi11MintsHelperEFNS_10shared_ptrINS3_6MatrixEEEdENS0_21default_call_policiesENS_3mpl7vector3IS7_RS4_dEEN4mpl_4int_ILi0EEEEENS0_3api6objectET_RKT0_RKT1_RKSt4pairIPKNS1_7keywordESU_ET2_
   fun:_ZN5boost6python6class_IN3psi11MintsHelperENS_10shared_ptrIS3_EENS0_6detail13not_specifiedES7_E8def_implIS3_MS3_FNS4_INS2_6MatrixEEEdENS6_10def_helperIPKcS7_S7_S7_EEEEvPT_SG_T0_RKT1_z
   fun:_Z12export_mintsv
   fun:_Z18init_module_PsiModv
   fun:_ZN5boost6python21handle_exception_implENS_9function0IvEE
   fun:_ZN5boost6python16handle_exceptionIPFvvEEEbT_
   fun:_ZN5boost6python6detail11init_moduleEPKcPFvvE
   fun:_PyImport_FixupExtension
   fun:_PyImport_FixupExtension
   fun:PyImport_ReloadModule
}
{
   Boost Python memort leak
   Memcheck:Leak
   fun:malloc
   fun:_Znwm
   fun:_ZN5boost6python6detail17make_function_auxIMN3psi11MintsHelperEFNS_10shared_ptrINS3_10CdSalcListEEEibbENS0_21default_call_policiesENS_3mpl7vector5IS7_RS4_ibbEEN4mpl_4int_ILi0EEEEENS0_3api6objectET_RKT0_RKT1_RKSt4pairIPKNS1_7keywordESU_ET2_
   fun:_ZN5boost6python6class_IN3psi11MintsHelperENS_10shared_ptrIS3_EENS0_6detail13not_specifiedES7_E8def_implIS3_MS3_FNS4_INS2_10CdSalcListEEEibbENS6_10def_helperIPKcS7_S7_S7_EEEEvPT_SG_T0_RKT1_z
   fun:_Z12export_mintsv
   fun:_Z18init_module_PsiModv
   fun:_ZN5boost6python21handle_exception_implENS_9function0IvEE
   fun:_ZN5boost6python16handle_exceptionIPFvvEEEbT_
   fun:_ZN5boost6python6detail11init_moduleEPKcPFvvE
   fun:_PyImport_FixupExtension
   fun:_PyImport_FixupExtension
   fun:PyImport_ReloadModule
}
{
   Boost Python memort leak
   Memcheck:Leak
   fun:malloc
   fun:_Znwm
   fun:_ZN5boost6python6detail17make_function_auxIMN3psi11MintsHelperEFvvENS0_21default_call_policiesENS_3mpl7vector2IvRS4_EEN4mpl_4int_ILi0EEEEENS0_3api6objectET_RKT0_RKT1_RKSt4pairIPKNS1_7keywordESR_ET2_
   fun:_ZN5boost6python6class_IN3psi11MintsHelperENS_10shared_ptrIS3_EENS0_6detail13not_specifiedES7_E8def_implIS3_MS3_FvvENS6_10def_helperIPKcS7_S7_S7_EEEEvPT_SE_T0_RKT1_z
   fun:_Z12export_mintsv
   fun:_Z18init_module_PsiModv
   fun:_ZN5boost6python21handle_exception_implENS_9function0IvEE
   fun:_ZN5boost6python16handle_exceptionIPFvvEEEbT_
   fun:_ZN5boost6python6detail11init_moduleEPKcPFvvE
   fun:_PyImport_FixupExtension
   fun:_PyImport_FixupExtension
   fun:PyImport_ReloadModule
}
{
   Boost Python memort leak
   Memcheck:Leak
   fun:malloc
   fun:_Znwm
   fun:_ZN5boost6python6detail17make_function_auxIMN3psi13FittingMetricEKFSsvENS0_21default_call_policiesENS_3mpl7vector2ISsRS4_EEN4mpl_4int_ILi0EEEEENS0_3api6objectET_RKT0_RKT1_RKSt4pairIPKNS1_7keywordESR_ET2_
   fun:_ZN5boost6python6class_IN3psi13FittingMetricENS_10shared_ptrIS3_EENS0_6detail13not_specifiedES7_E8def_implIS3_MS3_KFSsvENS6_10def_helperIPKcS7_S7_S7_EEEEvPT_SE_T0_RKT1_z
   fun:_Z12export_mintsv
   fun:_Z18init_module_PsiModv
   fun:_ZN5boost6python21handle_exception_implENS_9function0IvEE
   fun:_ZN5boost6python16handle_exceptionIPFvvEEEbT_
   fun:_ZN5boost6python6detail11init_moduleEPKcPFvvE
   fun:_PyImport_FixupExtension
   fun:_PyImport_FixupExtension
   fun:PyImport_ReloadModule
}
{
   Boost Python memort leak
   Memcheck:Leak
   fun:malloc
   fun:_Znwm
   fun:_ZN5boost6python6detail17make_function_auxIMN3psi13FittingMetricEKFbvENS0_21default_call_policiesENS_3mpl7vector2IbRS4_EEN4mpl_4int_ILi0EEEEENS0_3api6objectET_RKT0_RKT1_RKSt4pairIPKNS1_7keywordESR_ET2_
   fun:_ZN5boost6python6class_IN3psi13FittingMetricENS_10shared_ptrIS3_EENS0_6detail13not_specifiedES7_E8def_implIS3_MS3_KFbvENS6_10def_helperIPKcS7_S7_S7_EEEEvPT_SE_T0_RKT1_z
   fun:_Z12export_mintsv
   fun:_Z18init_module_PsiModv
   fun:_ZN5boost6python21handle_exception_implENS_9function0IvEE
   fun:_ZN5boost6python16handle_exceptionIPFvvEEEbT_
   fun:_ZN5boost6python6detail11init_moduleEPKcPFvvE
   fun:_PyImport_FixupExtension
   fun:_PyImport_FixupExtension
   fun:PyImport_ReloadModule
}
{
   Boost Python memort leak
   Memcheck:Leak
   fun:malloc
   fun:_Znwm
   fun:_ZN5boost6python6detail17make_function_auxIMN3psi13FittingMetricEKFbvENS0_21default_call_policiesENS_3mpl7vector2IbRS4_EEN4mpl_4int_ILi0EEEEENS0_3api6objectET_RKT0_RKT1_RKSt4pairIPKNS1_7keywordESR_ET2_
   fun:_ZN5boost6python6class_IN3psi13FittingMetricENS_10shared_ptrIS3_EENS0_6detail13not_specifiedES7_E8def_implIS3_MS3_KFbvENS6_10def_helperIPKcS7_S7_S7_EEEEvPT_SE_T0_RKT1_z
   fun:_Z12export_mintsv
   fun:_Z18init_module_PsiModv
   fun:_ZN5boost6python21handle_exception_implENS_9function0IvEE
   fun:_ZN5boost6python16handle_exceptionIPFvvEEEbT_
   fun:_ZN5boost6python6detail11init_moduleEPKcPFvvE
   fun:_PyImport_FixupExtension
   fun:_PyImport_FixupExtension
   fun:PyImport_ReloadModule
}
{
   Boost Python memort leak
   Memcheck:Leak
   fun:malloc
   fun:_Znwm
   fun:_ZN5boost6python6detail17make_function_auxIMN3psi13FittingMetricEKFNS_10shared_ptrINS3_6MatrixEEEvENS0_21default_call_policiesENS_3mpl7vector2IS7_RS4_EEN4mpl_4int_ILi0EEEEENS0_3api6objectET_RKT0_RKT1_RKSt4pairIPKNS1_7keywordESU_ET2_
   fun:_ZN5boost6python6class_IN3psi13FittingMetricENS_10shared_ptrIS3_EENS0_6detail13not_specifiedES7_E8def_implIS3_MS3_KFNS4_INS2_6MatrixEEEvENS6_10def_helperIPKcS7_S7_S7_EEEEvPT_SG_T0_RKT1_z
   fun:_Z12export_mintsv
   fun:_Z18init_module_PsiModv
   fun:_ZN5boost6python21handle_exception_implENS_9function0IvEE
   fun:_ZN5boost6python16handle_exceptionIPFvvEEEbT_
   fun:_ZN5boost6python6detail11init_moduleEPKcPFvvE
   fun:_PyImport_FixupExtension
   fun:_PyImport_FixupExtension
   fun:PyImport_ReloadModule
}
{
   Boost Python memort leak
   Memcheck:Leak
   fun:malloc
   fun:_Znwm
   fun:_ZN5boost6python6detail17make_function_auxIMN3psi13FittingMetricEKFNS_10shared_ptrINS3_9IntVectorEEEvENS0_21default_call_policiesENS_3mpl7vector2IS7_RS4_EEN4mpl_4int_ILi0EEEEENS0_3api6objectET_RKT0_RKT1_RKSt4pairIPKNS1_7keywordESU_ET2_
   fun:_ZN5boost6python6class_IN3psi13FittingMetricENS_10shared_ptrIS3_EENS0_6detail13not_specifiedES7_E8def_implIS3_MS3_KFNS4_INS2_9IntVectorEEEvENS6_10def_helperIPKcS7_S7_S7_EEEEvPT_SG_T0_RKT1_z
   fun:_Z12export_mintsv
   fun:_Z18init_module_PsiModv
   fun:_ZN5boost6python21handle_exception_implENS_9function0IvEE
   fun:_ZN5boost6python16handle_exceptionIPFvvEEEbT_
   fun:_ZN5boost6python6detail11init_moduleEPKcPFvvE
   fun:_PyImport_FixupExtension
   fun:_PyImport_FixupExtension
   fun:PyImport_ReloadModule
}
{
   Boost Python memort leak
   Memcheck:Leak
   fun:malloc
   fun:_Znwm
   fun:_ZN5boost6python6detail17make_function_auxIMN3psi13FittingMetricEKFNS_10shared_ptrINS3_9IntVectorEEEvENS0_21default_call_policiesENS_3mpl7vector2IS7_RS4_EEN4mpl_4int_ILi0EEEEENS0_3api6objectET_RKT0_RKT1_RKSt4pairIPKNS1_7keywordESU_ET2_
   fun:_ZN5boost6python6class_IN3psi13FittingMetricENS_10shared_ptrIS3_EENS0_6detail13not_specifiedES7_E8def_implIS3_MS3_KFNS4_INS2_9IntVectorEEEvENS6_10def_helperIPKcS7_S7_S7_EEEEvPT_SG_T0_RKT1_z
   fun:_Z12export_mintsv
   fun:_Z18init_module_PsiModv
   fun:_ZN5boost6python21handle_exception_implENS_9function0IvEE
   fun:_ZN5boost6python16handle_exceptionIPFvvEEEbT_
   fun:_ZN5boost6python6detail11init_moduleEPKcPFvvE
   fun:_PyImport_FixupExtension
   fun:_PyImport_FixupExtension
   fun:PyImport_ReloadModule
}
{
   Boost Python memort leak
   Memcheck:Leak
   fun:malloc
   fun:_Znwm
   fun:_ZN5boost6python6detail17make_function_auxIMN3psi13FittingMetricEFvvENS0_21default_call_policiesENS_3mpl7vector2IvRS4_EEN4mpl_4int_ILi0EEEEENS0_3api6objectET_RKT0_RKT1_RKSt4pairIPKNS1_7keywordESR_ET2_
   fun:_ZN5boost6python6class_IN3psi13FittingMetricENS_10shared_ptrIS3_EENS0_6detail13not_specifiedES7_E8def_implIS3_MS3_FvvENS6_10def_helperIPKcS7_S7_S7_EEEEvPT_SE_T0_RKT1_z
   fun:_Z12export_mintsv
   fun:_Z18init_module_PsiModv
   fun:_ZN5boost6python21handle_exception_implENS_9function0IvEE
   fun:_ZN5boost6python16handle_exceptionIPFvvEEEbT_
   fun:_ZN5boost6python6detail11init_moduleEPKcPFvvE
   fun:_PyImport_FixupExtension
   fun:_PyImport_FixupExtension
   fun:PyImport_ReloadModule
}
{
   Boost Python memort leak
   Memcheck:Leak
   fun:malloc
   fun:_Znwm
   fun:_ZN5boost6python6detail17make_function_auxIMN3psi13FittingMetricEFvvENS0_21default_call_policiesENS_3mpl7vector2IvRS4_EEN4mpl_4int_ILi0EEEEENS0_3api6objectET_RKT0_RKT1_RKSt4pairIPKNS1_7keywordESR_ET2_
   fun:_ZN5boost6python6class_IN3psi13FittingMetricENS_10shared_ptrIS3_EENS0_6detail13not_specifiedES7_E8def_implIS3_MS3_FvvENS6_10def_helperIPKcS7_S7_S7_EEEEvPT_SE_T0_RKT1_z
   fun:_Z12export_mintsv
   fun:_Z18init_module_PsiModv
   fun:_ZN5boost6python21handle_exception_implENS_9function0IvEE
   fun:_ZN5boost6python16handle_exceptionIPFvvEEEbT_
   fun:_ZN5boost6python6detail11init_moduleEPKcPFvvE
   fun:_PyImport_FixupExtension
   fun:_PyImport_FixupExtension
   fun:PyImport_ReloadModule
}
{
   Boost Python memort leak
   Memcheck:Leak
   fun:malloc
   fun:_Znwm
   fun:_ZN5boost6python6detail17make_function_auxIMN3psi13FittingMetricEFvdENS0_21default_call_policiesENS_3mpl7vector3IvRS4_dEEN4mpl_4int_ILi0EEEEENS0_3api6objectET_RKT0_RKT1_RKSt4pairIPKNS1_7keywordESR_ET2_
   fun:_ZN5boost6python6class_IN3psi13FittingMetricENS_10shared_ptrIS3_EENS0_6detail13not_specifiedES7_E8def_implIS3_MS3_FvdENS6_10def_helperIPKcS7_S7_S7_EEEEvPT_SE_T0_RKT1_z
   fun:_Z12export_mintsv
   fun:_Z18init_module_PsiModv
   fun:_ZN5boost6python21handle_exception_implENS_9function0IvEE
   fun:_ZN5boost6python16handle_exceptionIPFvvEEEbT_
   fun:_ZN5boost6python6detail11init_moduleEPKcPFvvE
   fun:_PyImport_FixupExtension
   fun:_PyImport_FixupExtension
   fun:PyImport_ReloadModule
}
{
   Boost Python memort leak
   Memcheck:Leak
   fun:malloc
   fun:_Znwm
   fun:_ZN5boost6python6detail17make_function_auxIMN3psi13FittingMetricEFvdENS0_21default_call_policiesENS_3mpl7vector3IvRS4_dEEN4mpl_4int_ILi0EEEEENS0_3api6objectET_RKT0_RKT1_RKSt4pairIPKNS1_7keywordESR_ET2_
   fun:_ZN5boost6python6class_IN3psi13FittingMetricENS_10shared_ptrIS3_EENS0_6detail13not_specifiedES7_E8def_implIS3_MS3_FvdENS6_10def_helperIPKcS7_S7_S7_EEEEvPT_SE_T0_RKT1_z
   fun:_Z12export_mintsv
   fun:_Z18init_module_PsiModv
   fun:_ZN5boost6python21handle_exception_implENS_9function0IvEE
   fun:_ZN5boost6python16handle_exceptionIPFvvEEEbT_
   fun:_ZN5boost6python6detail11init_moduleEPKcPFvvE
   fun:_PyImport_FixupExtension
   fun:_PyImport_FixupExtension
   fun:PyImport_ReloadModule
}
{
   Boost Python memort leak
   Memcheck:Leak
   fun:malloc
   fun:_Znwm
   fun:_ZN5boost6python6detail17make_function_auxIMN3psi13FittingMetricEFvvENS0_21default_call_policiesENS_3mpl7vector2IvRS4_EEN4mpl_4int_ILi0EEEEENS0_3api6objectET_RKT0_RKT1_RKSt4pairIPKNS1_7keywordESR_ET2_
   fun:_ZN5boost6python6class_IN3psi13FittingMetricENS_10shared_ptrIS3_EENS0_6detail13not_specifiedES7_E8def_implIS3_MS3_FvvENS6_10def_helperIPKcS7_S7_S7_EEEEvPT_SE_T0_RKT1_z
   fun:_Z12export_mintsv
   fun:_Z18init_module_PsiModv
   fun:_ZN5boost6python21handle_exception_implENS_9function0IvEE
   fun:_ZN5boost6python16handle_exceptionIPFvvEEEbT_
   fun:_ZN5boost6python6detail11init_moduleEPKcPFvvE
   fun:_PyImport_FixupExtension
   fun:_PyImport_FixupExtension
   fun:PyImport_ReloadModule
}
{
   Boost Python memort leak
   Memcheck:Leak
   fun:malloc
   fun:_Znwm
   fun:_ZN5boost6python6detail17make_function_auxIMN3psi11PseudoTrialEKFNS_10shared_ptrINS3_6MatrixEEEvENS0_21default_call_policiesENS_3mpl7vector2IS7_RS4_EEN4mpl_4int_ILi0EEEEENS0_3api6objectET_RKT0_RKT1_RKSt4pairIPKNS1_7keywordESU_ET2_
   fun:_ZN5boost6python6class_IN3psi11PseudoTrialENS_10shared_ptrIS3_EENS0_6detail13not_specifiedES7_E8def_implIS3_MS3_KFNS4_INS2_6MatrixEEEvENS6_10def_helperIPKcS7_S7_S7_EEEEvPT_SG_T0_RKT1_z
   fun:_Z12export_mintsv
   fun:_Z18init_module_PsiModv
   fun:_ZN5boost6python21handle_exception_implENS_9function0IvEE
   fun:_ZN5boost6python16handle_exceptionIPFvvEEEbT_
   fun:_ZN5boost6python6detail11init_moduleEPKcPFvvE
   fun:_PyImport_FixupExtension
   fun:_PyImport_FixupExtension
   fun:PyImport_ReloadModule
}
{
   Boost Python memort leak
   Memcheck:Leak
   fun:malloc
   fun:_Znwm
   fun:_ZN5boost6python6detail17make_function_auxIMN3psi11PseudoTrialEKFNS_10shared_ptrINS3_6MatrixEEEvENS0_21default_call_policiesENS_3mpl7vector2IS7_RS4_EEN4mpl_4int_ILi0EEEEENS0_3api6objectET_RKT0_RKT1_RKSt4pairIPKNS1_7keywordESU_ET2_
   fun:_ZN5boost6python6class_IN3psi11PseudoTrialENS_10shared_ptrIS3_EENS0_6detail13not_specifiedES7_E8def_implIS3_MS3_KFNS4_INS2_6MatrixEEEvENS6_10def_helperIPKcS7_S7_S7_EEEEvPT_SG_T0_RKT1_z
   fun:_Z12export_mintsv
   fun:_Z18init_module_PsiModv
   fun:_ZN5boost6python21handle_exception_implENS_9function0IvEE
   fun:_ZN5boost6python16handle_exceptionIPFvvEEEbT_
   fun:_ZN5boost6python6detail11init_moduleEPKcPFvvE
   fun:_PyImport_FixupExtension
   fun:_PyImport_FixupExtension
   fun:PyImport_ReloadModule
}
{
   Boost Python memort leak
   Memcheck:Leak
   fun:malloc
   fun:_Znwm
   fun:_ZN5boost6python6detail17make_function_auxIMN3psi11PseudoTrialEKFNS_10shared_ptrINS3_6MatrixEEEvENS0_21default_call_policiesENS_3mpl7vector2IS7_RS4_EEN4mpl_4int_ILi0EEEEENS0_3api6objectET_RKT0_RKT1_RKSt4pairIPKNS1_7keywordESU_ET2_
   fun:_ZN5boost6python6class_IN3psi11PseudoTrialENS_10shared_ptrIS3_EENS0_6detail13not_specifiedES7_E8def_implIS3_MS3_KFNS4_INS2_6MatrixEEEvENS6_10def_helperIPKcS7_S7_S7_EEEEvPT_SG_T0_RKT1_z
   fun:_Z12export_mintsv
   fun:_Z18init_module_PsiModv
   fun:_ZN5boost6python21handle_exception_implENS_9function0IvEE
   fun:_ZN5boost6python16handle_exceptionIPFvvEEEbT_
   fun:_ZN5boost6python6detail11init_moduleEPKcPFvvE
   fun:_PyImport_FixupExtension
   fun:_PyImport_FixupExtension
   fun:PyImport_ReloadModule
}
{
   Boost Python memort leak
   Memcheck:Leak
   fun:malloc
   fun:_Znwm
   fun:_ZN5boost6python6detail17make_function_auxIMN3psi11PseudoTrialEKFNS_10shared_ptrINS3_6MatrixEEEvENS0_21default_call_policiesENS_3mpl7vector2IS7_RS4_EEN4mpl_4int_ILi0EEEEENS0_3api6objectET_RKT0_RKT1_RKSt4pairIPKNS1_7keywordESU_ET2_
   fun:_ZN5boost6python6class_IN3psi11PseudoTrialENS_10shared_ptrIS3_EENS0_6detail13not_specifiedES7_E8def_implIS3_MS3_KFNS4_INS2_6MatrixEEEvENS6_10def_helperIPKcS7_S7_S7_EEEEvPT_SG_T0_RKT1_z
   fun:_Z12export_mintsv
   fun:_Z18init_module_PsiModv
   fun:_ZN5boost6python21handle_exception_implENS_9function0IvEE
   fun:_ZN5boost6python16handle_exceptionIPFvvEEEbT_
   fun:_ZN5boost6python6detail11init_moduleEPKcPFvvE
   fun:_PyImport_FixupExtension
   fun:_PyImport_FixupExtension
   fun:PyImport_ReloadModule
}
{
   Boost Python memort leak
   Memcheck:Leak
   fun:malloc
   fun:_Znwm
   fun:_ZN5boost6python6detail17make_function_auxIMN3psi11PseudoTrialEKFNS_10shared_ptrINS3_6MatrixEEEvENS0_21default_call_policiesENS_3mpl7vector2IS7_RS4_EEN4mpl_4int_ILi0EEEEENS0_3api6objectET_RKT0_RKT1_RKSt4pairIPKNS1_7keywordESU_ET2_
   fun:_ZN5boost6python6class_IN3psi11PseudoTrialENS_10shared_ptrIS3_EENS0_6detail13not_specifiedES7_E8def_implIS3_MS3_KFNS4_INS2_6MatrixEEEvENS6_10def_helperIPKcS7_S7_S7_EEEEvPT_SG_T0_RKT1_z
   fun:_Z12export_mintsv
   fun:_Z18init_module_PsiModv
   fun:_ZN5boost6python21handle_exception_implENS_9function0IvEE
   fun:_ZN5boost6python16handle_exceptionIPFvvEEEbT_
   fun:_ZN5boost6python6detail11init_moduleEPKcPFvvE
   fun:_PyImport_FixupExtension
   fun:_PyImport_FixupExtension
   fun:PyImport_ReloadModule
}
{
   Boost Python memort leak
   Memcheck:Leak
   fun:malloc
   fun:_Znwm
   fun:_ZN5boost6python6detail17make_function_auxIMN3psi7Vector3EKFdRKS4_ENS0_21default_call_policiesENS_3mpl7vector3IdRS4_S6_EEN4mpl_4int_ILi0EEEEENS0_3api6objectET_RKT0_RKT1_RKSt4pairIPKNS1_7keywordEST_ET2_
   fun:_ZN5boost6python6class_IN3psi7Vector3ENS0_6detail13not_specifiedES5_S5_E8def_implIS3_MS3_KFdRKS3_ENS4_10def_helperIPKcS5_S5_S5_EEEEvPT_SE_T0_RKT1_z
   fun:_Z12export_mintsv
   fun:_Z18init_module_PsiModv
   fun:_ZN5boost6python21handle_exception_implENS_9function0IvEE
   fun:_ZN5boost6python16handle_exceptionIPFvvEEEbT_
   fun:_ZN5boost6python6detail11init_moduleEPKcPFvvE
   fun:_PyImport_FixupExtension
   fun:_PyImport_FixupExtension
   fun:PyImport_ReloadModule
}
{
   Boost Python memort leak
   Memcheck:Leak
   fun:malloc
   fun:_Znwm
   fun:_ZN5boost6python6detail17make_function_auxIMN3psi7Vector3EKFdRKS4_ENS0_21default_call_policiesENS_3mpl7vector3IdRS4_S6_EEN4mpl_4int_ILi0EEEEENS0_3api6objectET_RKT0_RKT1_RKSt4pairIPKNS1_7keywordEST_ET2_
   fun:_ZN5boost6python6class_IN3psi7Vector3ENS0_6detail13not_specifiedES5_S5_E8def_implIS3_MS3_KFdRKS3_ENS4_10def_helperIPKcS5_S5_S5_EEEEvPT_SE_T0_RKT1_z
   fun:_Z12export_mintsv
   fun:_Z18init_module_PsiModv
   fun:_ZN5boost6python21handle_exception_implENS_9function0IvEE
   fun:_ZN5boost6python16handle_exceptionIPFvvEEEbT_
   fun:_ZN5boost6python6detail11init_moduleEPKcPFvvE
   fun:_PyImport_FixupExtension
   fun:_PyImport_FixupExtension
   fun:PyImport_ReloadModule
}
{
   Boost Python memort leak
   Memcheck:Leak
   fun:malloc
   fun:_Znwm
   fun:_ZN5boost6python6detail17make_function_auxIMN3psi7Vector3EFvvENS0_21default_call_policiesENS_3mpl7vector2IvRS4_EEN4mpl_4int_ILi0EEEEENS0_3api6objectET_RKT0_RKT1_RKSt4pairIPKNS1_7keywordESR_ET2_
   fun:_ZN5boost6python6class_IN3psi7Vector3ENS0_6detail13not_specifiedES5_S5_E8def_implIS3_MS3_FvvENS4_10def_helperIPKcS5_S5_S5_EEEEvPT_SC_T0_RKT1_z
   fun:_Z12export_mintsv
   fun:_Z18init_module_PsiModv
   fun:_ZN5boost6python21handle_exception_implENS_9function0IvEE
   fun:_ZN5boost6python16handle_exceptionIPFvvEEEbT_
   fun:_ZN5boost6python6detail11init_moduleEPKcPFvvE
   fun:_PyImport_FixupExtension
   fun:_PyImport_FixupExtension
   fun:PyImport_ReloadModule
}
{
   Boost Python memort leak
   Memcheck:Leak
   fun:malloc
   fun:_Znwm
   fun:_ZN5boost6python6detail17make_function_auxIMN3psi7Vector3EKFdvENS0_21default_call_policiesENS_3mpl7vector2IdRS4_EEN4mpl_4int_ILi0EEEEENS0_3api6objectET_RKT0_RKT1_RKSt4pairIPKNS1_7keywordESR_ET2_
   fun:_ZN5boost6python6class_IN3psi7Vector3ENS0_6detail13not_specifiedES5_S5_E8def_implIS3_MS3_KFdvENS4_10def_helperIPKcS5_S5_S5_EEEEvPT_SC_T0_RKT1_z
   fun:_Z12export_mintsv
   fun:_Z18init_module_PsiModv
   fun:_ZN5boost6python21handle_exception_implENS_9function0IvEE
   fun:_ZN5boost6python16handle_exceptionIPFvvEEEbT_
   fun:_ZN5boost6python6detail11init_moduleEPKcPFvvE
   fun:_PyImport_FixupExtension
   fun:_PyImport_FixupExtension
   fun:PyImport_ReloadModule
}
{
   Boost Python memort leak
   Memcheck:Leak
   fun:malloc
   fun:_Znwm
   fun:_ZN5boost6python6detail17make_function_auxIMN3psi7Vector3EKFS4_RKS4_ENS0_21default_call_policiesENS_3mpl7vector3IS4_RS4_S6_EEN4mpl_4int_ILi0EEEEENS0_3api6objectET_RKT0_RKT1_RKSt4pairIPKNS1_7keywordEST_ET2_
   fun:_ZN5boost6python6class_IN3psi7Vector3ENS0_6detail13not_specifiedES5_S5_E8def_implIS3_MS3_KFS3_RKS3_ENS4_10def_helperIPKcS5_S5_S5_EEEEvPT_SE_T0_RKT1_z
   fun:_Z12export_mintsv
   fun:_Z18init_module_PsiModv
   fun:_ZN5boost6python21handle_exception_implENS_9function0IvEE
   fun:_ZN5boost6python16handle_exceptionIPFvvEEEbT_
   fun:_ZN5boost6python6detail11init_moduleEPKcPFvvE
   fun:_PyImport_FixupExtension
   fun:_PyImport_FixupExtension
   fun:PyImport_ReloadModule
}
{
   Boost Python memort leak
   Memcheck:Leak
   fun:malloc
   fun:_Znwm
   fun:_ZN5boost6python6detail17make_function_auxIMN3psi7Vector3EFSsvENS0_21default_call_policiesENS_3mpl7vector2ISsRS4_EEN4mpl_4int_ILi0EEEEENS0_3api6objectET_RKT0_RKT1_RKSt4pairIPKNS1_7keywordESR_ET2_
   fun:_ZN5boost6python6class_IN3psi7Vector3ENS0_6detail13not_specifiedES5_S5_E8def_implIS3_MS3_FSsvENS4_10def_helperIPKcS5_S5_S5_EEEEvPT_SC_T0_RKT1_z
   fun:_Z12export_mintsv
   fun:_Z18init_module_PsiModv
   fun:_ZN5boost6python21handle_exception_implENS_9function0IvEE
   fun:_ZN5boost6python16handle_exceptionIPFvvEEEbT_
   fun:_ZN5boost6python6detail11init_moduleEPKcPFvvE
   fun:_PyImport_FixupExtension
   fun:_PyImport_FixupExtension
   fun:PyImport_ReloadModule
}
{
   Boost Python memort leak
   Memcheck:Leak
   fun:malloc
   fun:_Znwm
   fun:_ZN5boost6python6detail17make_function_auxIMN3psi7Vector3EFdiENS0_21default_call_policiesENS_3mpl7vector3IdRS4_iEEN4mpl_4int_ILi0EEEEENS0_3api6objectET_RKT0_RKT1_RKSt4pairIPKNS1_7keywordESR_ET2_
   fun:_ZN5boost6python6class_IN3psi7Vector3ENS0_6detail13not_specifiedES5_S5_E8def_implIS3_MS3_FdiENS4_10def_helperIPKcS5_S5_S5_EEEEvPT_SC_T0_RKT1_z
   fun:_Z12export_mintsv
   fun:_Z18init_module_PsiModv
   fun:_ZN5boost6python21handle_exception_implENS_9function0IvEE
   fun:_ZN5boost6python16handle_exceptionIPFvvEEEbT_
   fun:_ZN5boost6python6detail11init_moduleEPKcPFvvE
   fun:_PyImport_FixupExtension
   fun:_PyImport_FixupExtension
   fun:PyImport_ReloadModule
}
{
   Boost Python memort leak
   Memcheck:Leak
   fun:malloc
   fun:_Znwm
   fun:_ZN5boost6python6detail17make_function_auxIMN3psi17SymmetryOperationEKFdvENS0_21default_call_policiesENS_3mpl7vector2IdRS4_EEN4mpl_4int_ILi0EEEEENS0_3api6objectET_RKT0_RKT1_RKSt4pairIPKNS1_7keywordESR_ET2_
   fun:_ZN5boost6python6class_IN3psi17SymmetryOperationENS0_6detail13not_specifiedES5_S5_E8def_implIS3_MS3_KFdvENS4_10def_helperIPKcS5_S5_S5_EEEEvPT_SC_T0_RKT1_z
   fun:_Z12export_mintsv
   fun:_Z18init_module_PsiModv
   fun:_ZN5boost6python21handle_exception_implENS_9function0IvEE
   fun:_ZN5boost6python16handle_exceptionIPFvvEEEbT_
   fun:_ZN5boost6python6detail11init_moduleEPKcPFvvE
   fun:_PyImport_FixupExtension
   fun:_PyImport_FixupExtension
   fun:PyImport_ReloadModule
}
{
   Boost Python memort leak
   Memcheck:Leak
   fun:malloc
   fun:_Znwm
   fun:_ZN5boost6python6detail17make_function_auxIMN3psi17SymmetryOperationEFvvENS0_21default_call_policiesENS_3mpl7vector2IvRS4_EEN4mpl_4int_ILi0EEEEENS0_3api6objectET_RKT0_RKT1_RKSt4pairIPKNS1_7keywordESR_ET2_
   fun:_ZN5boost6python6class_IN3psi17SymmetryOperationENS0_6detail13not_specifiedES5_S5_E8def_implIS3_MS3_FvvENS4_10def_helperIPKcS5_S5_S5_EEEEvPT_SC_T0_RKT1_z
   fun:_Z12export_mintsv
   fun:_Z18init_module_PsiModv
   fun:_ZN5boost6python21handle_exception_implENS_9function0IvEE
   fun:_ZN5boost6python16handle_exceptionIPFvvEEEbT_
   fun:_ZN5boost6python6detail11init_moduleEPKcPFvvE
   fun:_PyImport_FixupExtension
   fun:_PyImport_FixupExtension
   fun:PyImport_ReloadModule
}
{
   Boost Python memort leak
   Memcheck:Leak
   fun:malloc
   fun:_Znwm
   fun:_ZN5boost6python6detail17make_function_auxIMN3psi17SymmetryOperationEKFS4_RKS4_ENS0_21default_call_policiesENS_3mpl7vector3IS4_RS4_S6_EEN4mpl_4int_ILi0EEEEENS0_3api6objectET_RKT0_RKT1_RKSt4pairIPKNS1_7keywordEST_ET2_
   fun:_ZN5boost6python6class_IN3psi17SymmetryOperationENS0_6detail13not_specifiedES5_S5_E8def_implIS3_MS3_KFS3_RKS3_ENS4_10def_helperIPKcS5_S5_S5_EEEEvPT_SE_T0_RKT1_z
   fun:_Z12export_mintsv
   fun:_Z18init_module_PsiModv
   fun:_ZN5boost6python21handle_exception_implENS_9function0IvEE
   fun:_ZN5boost6python16handle_exceptionIPFvvEEEbT_
   fun:_ZN5boost6python6detail11init_moduleEPKcPFvvE
   fun:_PyImport_FixupExtension
   fun:_PyImport_FixupExtension
   fun:PyImport_ReloadModule
}
{
   Boost Python memort leak
   Memcheck:Leak
   fun:malloc
   fun:_Znwm
   fun:_ZN5boost6python6detail17make_function_auxIMN3psi17SymmetryOperationEKFS4_RKS4_ENS0_21default_call_policiesENS_3mpl7vector3IS4_RS4_S6_EEN4mpl_4int_ILi0EEEEENS0_3api6objectET_RKT0_RKT1_RKSt4pairIPKNS1_7keywordEST_ET2_
   fun:_ZN5boost6python6class_IN3psi17SymmetryOperationENS0_6detail13not_specifiedES5_S5_E8def_implIS3_MS3_KFS3_RKS3_ENS4_10def_helperIPKcS5_S5_S5_EEEEvPT_SE_T0_RKT1_z
   fun:_Z12export_mintsv
   fun:_Z18init_module_PsiModv
   fun:_ZN5boost6python21handle_exception_implENS_9function0IvEE
   fun:_ZN5boost6python16handle_exceptionIPFvvEEEbT_
   fun:_ZN5boost6python6detail11init_moduleEPKcPFvvE
   fun:_PyImport_FixupExtension
   fun:_PyImport_FixupExtension
   fun:PyImport_ReloadModule
}
{
   Boost Python memort leak
   Memcheck:Leak
   fun:malloc
   fun:_Znwm
   fun:_ZN5boost6python6detail17make_function_auxIMN3psi17SymmetryOperationEFvvENS0_21default_call_policiesENS_3mpl7vector2IvRS4_EEN4mpl_4int_ILi0EEEEENS0_3api6objectET_RKT0_RKT1_RKSt4pairIPKNS1_7keywordESR_ET2_
   fun:_ZN5boost6python6class_IN3psi17SymmetryOperationENS0_6detail13not_specifiedES5_S5_E8def_implIS3_MS3_FvvENS4_10def_helperIPKcS5_S5_S5_EEEEvPT_SC_T0_RKT1_z
   fun:_Z12export_mintsv
   fun:_Z18init_module_PsiModv
   fun:_ZN5boost6python21handle_exception_implENS_9function0IvEE
   fun:_ZN5boost6python16handle_exceptionIPFvvEEEbT_
   fun:_ZN5boost6python6detail11init_moduleEPKcPFvvE
   fun:_PyImport_FixupExtension
   fun:_PyImport_FixupExtension
   fun:PyImport_ReloadModule
}
{
   Boost Python memort leak
   Memcheck:Leak
   fun:malloc
   fun:_Znwm
   fun:_ZN5boost6python6detail17make_function_auxIMN3psi17SymmetryOperationEFvvENS0_21default_call_policiesENS_3mpl7vector2IvRS4_EEN4mpl_4int_ILi0EEEEENS0_3api6objectET_RKT0_RKT1_RKSt4pairIPKNS1_7keywordESR_ET2_
   fun:_ZN5boost6python6class_IN3psi17SymmetryOperationENS0_6detail13not_specifiedES5_S5_E8def_implIS3_MS3_FvvENS4_10def_helperIPKcS5_S5_S5_EEEEvPT_SC_T0_RKT1_z
   fun:_Z12export_mintsv
   fun:_Z18init_module_PsiModv
   fun:_ZN5boost6python21handle_exception_implENS_9function0IvEE
   fun:_ZN5boost6python16handle_exceptionIPFvvEEEbT_
   fun:_ZN5boost6python6detail11init_moduleEPKcPFvvE
   fun:_PyImport_FixupExtension
   fun:_PyImport_FixupExtension
   fun:PyImport_ReloadModule
}
{
   Boost Python memort leak
   Memcheck:Leak
   fun:malloc
   fun:_Znwm
   fun:_ZN5boost6python6detail17make_function_auxIMN3psi17SymmetryOperationEFvvENS0_21default_call_policiesENS_3mpl7vector2IvRS4_EEN4mpl_4int_ILi0EEEEENS0_3api6objectET_RKT0_RKT1_RKSt4pairIPKNS1_7keywordESR_ET2_
   fun:_ZN5boost6python6class_IN3psi17SymmetryOperationENS0_6detail13not_specifiedES5_S5_E8def_implIS3_MS3_FvvENS4_10def_helperIPKcS5_S5_S5_EEEEvPT_SC_T0_RKT1_z
   fun:_Z12export_mintsv
   fun:_Z18init_module_PsiModv
   fun:_ZN5boost6python21handle_exception_implENS_9function0IvEE
   fun:_ZN5boost6python16handle_exceptionIPFvvEEEbT_
   fun:_ZN5boost6python6detail11init_moduleEPKcPFvvE
   fun:_PyImport_FixupExtension
   fun:_PyImport_FixupExtension
   fun:PyImport_ReloadModule
}
{
   Boost Python memort leak
   Memcheck:Leak
   fun:malloc
   fun:_Znwm
   fun:_ZN5boost6python6detail17make_function_auxIMN3psi17SymmetryOperationEFvvENS0_21default_call_policiesENS_3mpl7vector2IvRS4_EEN4mpl_4int_ILi0EEEEENS0_3api6objectET_RKT0_RKT1_RKSt4pairIPKNS1_7keywordESR_ET2_
   fun:_ZN5boost6python6class_IN3psi17SymmetryOperationENS0_6detail13not_specifiedES5_S5_E8def_implIS3_MS3_FvvENS4_10def_helperIPKcS5_S5_S5_EEEEvPT_SC_T0_RKT1_z
   fun:_Z12export_mintsv
   fun:_Z18init_module_PsiModv
   fun:_ZN5boost6python21handle_exception_implENS_9function0IvEE
   fun:_ZN5boost6python16handle_exceptionIPFvvEEEbT_
   fun:_ZN5boost6python6detail11init_moduleEPKcPFvvE
   fun:_PyImport_FixupExtension
   fun:_PyImport_FixupExtension
   fun:PyImport_ReloadModule
}
{
   Boost Python memort leak
   Memcheck:Leak
   fun:malloc
   fun:_Znwm
   fun:_ZN5boost6python6detail17make_function_auxIMN3psi17SymmetryOperationEFvvENS0_21default_call_policiesENS_3mpl7vector2IvRS4_EEN4mpl_4int_ILi0EEEEENS0_3api6objectET_RKT0_RKT1_RKSt4pairIPKNS1_7keywordESR_ET2_
   fun:_ZN5boost6python6class_IN3psi17SymmetryOperationENS0_6detail13not_specifiedES5_S5_E8def_implIS3_MS3_FvvENS4_10def_helperIPKcS5_S5_S5_EEEEvPT_SC_T0_RKT1_z
   fun:_Z12export_mintsv
   fun:_Z18init_module_PsiModv
   fun:_ZN5boost6python21handle_exception_implENS_9function0IvEE
   fun:_ZN5boost6python16handle_exceptionIPFvvEEEbT_
   fun:_ZN5boost6python6detail11init_moduleEPKcPFvvE
   fun:_PyImport_FixupExtension
   fun:_PyImport_FixupExtension
   fun:PyImport_ReloadModule
}
{
   Boost Python memort leak
   Memcheck:Leak
   fun:malloc
   fun:_Znwm
   fun:_ZN5boost6python6detail17make_function_auxIMN3psi17SymmetryOperationEFviENS0_21default_call_policiesENS_3mpl7vector3IvRS4_iEEN4mpl_4int_ILi0EEEEENS0_3api6objectET_RKT0_RKT1_RKSt4pairIPKNS1_7keywordESR_ET2_
   fun:_ZN5boost6python6class_IN3psi17SymmetryOperationENS0_6detail13not_specifiedES5_S5_E8def_implIS3_MS3_FviENS4_10def_helperIPKcS5_S5_S5_EEEEvPT_SC_T0_RKT1_z
   fun:_Z12export_mintsv
   fun:_Z18init_module_PsiModv
   fun:_ZN5boost6python21handle_exception_implENS_9function0IvEE
   fun:_ZN5boost6python16handle_exceptionIPFvvEEEbT_
   fun:_ZN5boost6python6detail11init_moduleEPKcPFvvE
   fun:_PyImport_FixupExtension
   fun:_PyImport_FixupExtension
   fun:PyImport_ReloadModule
}
{
   Boost Python memort leak
   Memcheck:Leak
   fun:malloc
   fun:_Znwm
   fun:_ZN5boost6python6detail17make_function_auxIMN3psi17SymmetryOperationEFvdENS0_21default_call_policiesENS_3mpl7vector3IvRS4_dEEN4mpl_4int_ILi0EEEEENS0_3api6objectET_RKT0_RKT1_RKSt4pairIPKNS1_7keywordESR_ET2_
   fun:_ZN5boost6python6class_IN3psi17SymmetryOperationENS0_6detail13not_specifiedES5_S5_E8def_implIS3_MS3_FvdENS4_10def_helperIPKcS5_S5_S5_EEEEvPT_SC_T0_RKT1_z
   fun:_Z12export_mintsv
   fun:_Z18init_module_PsiModv
   fun:_ZN5boost6python21handle_exception_implENS_9function0IvEE
   fun:_ZN5boost6python16handle_exceptionIPFvvEEEbT_
   fun:_ZN5boost6python6detail11init_moduleEPKcPFvvE
   fun:_PyImport_FixupExtension
   fun:_PyImport_FixupExtension
   fun:PyImport_ReloadModule
}
{
   Boost Python memort leak
   Memcheck:Leak
   fun:malloc
   fun:_Znwm
   fun:_ZN5boost6python6detail17make_function_auxIMN3psi17SymmetryOperationEFvvENS0_21default_call_policiesENS_3mpl7vector2IvRS4_EEN4mpl_4int_ILi0EEEEENS0_3api6objectET_RKT0_RKT1_RKSt4pairIPKNS1_7keywordESR_ET2_
   fun:_ZN5boost6python6class_IN3psi17SymmetryOperationENS0_6detail13not_specifiedES5_S5_E8def_implIS3_MS3_FvvENS4_10def_helperIPKcS5_S5_S5_EEEEvPT_SC_T0_RKT1_z
   fun:_Z12export_mintsv
   fun:_Z18init_module_PsiModv
   fun:_ZN5boost6python21handle_exception_implENS_9function0IvEE
   fun:_ZN5boost6python16handle_exceptionIPFvvEEEbT_
   fun:_ZN5boost6python6detail11init_moduleEPKcPFvvE
   fun:_PyImport_FixupExtension
   fun:_PyImport_FixupExtension
   fun:PyImport_ReloadModule
}
{
   Boost Python memort leak
   Memcheck:Leak
   fun:malloc
   fun:_Znwm
   fun:_ZN5boost6python6detail17make_function_auxIMN3psi17SymmetryOperationEFvvENS0_21default_call_policiesENS_3mpl7vector2IvRS4_EEN4mpl_4int_ILi0EEEEENS0_3api6objectET_RKT0_RKT1_RKSt4pairIPKNS1_7keywordESR_ET2_
   fun:_ZN5boost6python6class_IN3psi17SymmetryOperationENS0_6detail13not_specifiedES5_S5_E8def_implIS3_MS3_FvvENS4_10def_helperIPKcS5_S5_S5_EEEEvPT_SC_T0_RKT1_z
   fun:_Z12export_mintsv
   fun:_Z18init_module_PsiModv
   fun:_ZN5boost6python21handle_exception_implENS_9function0IvEE
   fun:_ZN5boost6python16handle_exceptionIPFvvEEEbT_
   fun:_ZN5boost6python6detail11init_moduleEPKcPFvvE
   fun:_PyImport_FixupExtension
   fun:_PyImport_FixupExtension
   fun:PyImport_ReloadModule
}
{
   Boost Python memort leak
   Memcheck:Leak
   fun:malloc
   fun:_Znwm
   fun:_ZN5boost6python6detail17make_function_auxIMN3psi17SymmetryOperationEFvvENS0_21default_call_policiesENS_3mpl7vector2IvRS4_EEN4mpl_4int_ILi0EEEEENS0_3api6objectET_RKT0_RKT1_RKSt4pairIPKNS1_7keywordESR_ET2_
   fun:_ZN5boost6python6class_IN3psi17SymmetryOperationENS0_6detail13not_specifiedES5_S5_E8def_implIS3_MS3_FvvENS4_10def_helperIPKcS5_S5_S5_EEEEvPT_SC_T0_RKT1_z
   fun:_Z12export_mintsv
   fun:_Z18init_module_PsiModv
   fun:_ZN5boost6python21handle_exception_implENS_9function0IvEE
   fun:_ZN5boost6python16handle_exceptionIPFvvEEEbT_
   fun:_ZN5boost6python6detail11init_moduleEPKcPFvvE
   fun:_PyImport_FixupExtension
   fun:_PyImport_FixupExtension
   fun:PyImport_ReloadModule
}
{
   Boost Python memort leak
   Memcheck:Leak
   fun:malloc
   fun:_Znwm
   fun:_ZN5boost6python6detail17make_function_auxIMN3psi10PointGroupEKFPKcvENS0_21default_call_policiesENS_3mpl7vector2IS6_RS4_EEN4mpl_4int_ILi0EEEEENS0_3api6objectET_RKT0_RKT1_RKSt4pairIPKNS1_7keywordEST_ET2_
   fun:_ZN5boost6python6class_IN3psi10PointGroupENS_10shared_ptrIS3_EENS0_6detail13not_specifiedES7_E8def_implIS3_MS3_KFPKcvENS6_10def_helperISB_S7_S7_S7_EEEEvPT_SB_T0_RKT1_z
   fun:_Z12export_mintsv
   fun:_Z18init_module_PsiModv
   fun:_ZN5boost6python21handle_exception_implENS_9function0IvEE
   fun:_ZN5boost6python16handle_exceptionIPFvvEEEbT_
   fun:_ZN5boost6python6detail11init_moduleEPKcPFvvE
   fun:_PyImport_FixupExtension
   fun:_PyImport_FixupExtension
   fun:PyImport_ReloadModule
}
{
   Boost Python memort leak
   Memcheck:Leak
   fun:malloc
   fun:_Znwm
   fun:_ZN5boost6python6detail17make_function_auxIMN3psi10PointGroupEFvPKcENS0_21default_call_policiesENS_3mpl7vector3IvRS4_S6_EEN4mpl_4int_ILi0EEEEENS0_3api6objectET_RKT0_RKT1_RKSt4pairIPKNS1_7keywordEST_ET2_
   fun:_ZN5boost6python6class_IN3psi10PointGroupENS_10shared_ptrIS3_EENS0_6detail13not_specifiedES7_E8def_implIS3_MS3_FvPKcENS6_10def_helperISB_S7_S7_S7_EEEEvPT_SB_T0_RKT1_z
   fun:_Z12export_mintsv
   fun:_Z18init_module_PsiModv
   fun:_ZN5boost6python21handle_exception_implENS_9function0IvEE
   fun:_ZN5boost6python16handle_exceptionIPFvvEEEbT_
   fun:_ZN5boost6python6detail11init_moduleEPKcPFvvE
   fun:_PyImport_FixupExtension
   fun:_PyImport_FixupExtension
   fun:PyImport_ReloadModule
}
{
   Boost Python memort leak
   Memcheck:Leak
   fun:malloc
   fun:_Znwm
   fun:_ZN5boost6python6detail17make_function_auxIMN3psi17ExternalPotentialEFvRKSsENS0_21default_call_policiesENS_3mpl7vector3IvRS4_S6_EEN4mpl_4int_ILi0EEEEENS0_3api6objectET_RKT0_RKT1_RKSt4pairIPKNS1_7keywordEST_ET2_
   fun:_ZN5boost6python6class_IN3psi17ExternalPotentialENS_10shared_ptrIS3_EENS_12noncopyable_11noncopyableENS0_6detail13not_specifiedEE8def_implIS3_MS3_FvRKSsENS8_10def_helperIPKcS9_S9_S9_EEEEvPT_SI_T0_RKT1_z
   fun:_Z12export_mintsv
   fun:_Z18init_module_PsiModv
   fun:_ZN5boost6python21handle_exception_implENS_9function0IvEE
   fun:_ZN5boost6python16handle_exceptionIPFvvEEEbT_
   fun:_ZN5boost6python6detail11init_moduleEPKcPFvvE
   fun:_PyImport_FixupExtension
   fun:_PyImport_FixupExtension
   fun:PyImport_ReloadModule
}
{
   Boost Python memort leak
   Memcheck:Leak
   fun:malloc
   fun:_Znwm
   fun:_ZN5boost6python6detail17make_function_auxIMN3psi17ExternalPotentialEFvddddENS0_21default_call_policiesENS_3mpl7vector6IvRS4_ddddEEN4mpl_4int_ILi0EEEEENS0_3api6objectET_RKT0_RKT1_RKSt4pairIPKNS1_7keywordESR_ET2_
   fun:_ZN5boost6python6class_IN3psi17ExternalPotentialENS_10shared_ptrIS3_EENS_12noncopyable_11noncopyableENS0_6detail13not_specifiedEE8def_implIS3_MS3_FvddddENS8_10def_helperIPKcS9_S9_S9_EEEEvPT_SG_T0_RKT1_z
   fun:_Z12export_mintsv
   fun:_Z18init_module_PsiModv
   fun:_ZN5boost6python21handle_exception_implENS_9function0IvEE
   fun:_ZN5boost6python16handle_exceptionIPFvvEEEbT_
   fun:_ZN5boost6python6detail11init_moduleEPKcPFvvE
   fun:_PyImport_FixupExtension
   fun:_PyImport_FixupExtension
   fun:PyImport_ReloadModule
}
{
   Boost Python memort leak
   Memcheck:Leak
   fun:malloc
   fun:_Znwm
   fun:_ZN5boost6python6detail17make_function_auxIMN3psi17ExternalPotentialEFvddddddENS0_21default_call_policiesENS_3mpl7vector8IvRS4_ddddddEEN4mpl_4int_ILi0EEEEENS0_3api6objectET_RKT0_RKT1_RKSt4pairIPKNS1_7keywordESR_ET2_
   fun:_ZN5boost6python6class_IN3psi17ExternalPotentialENS_10shared_ptrIS3_EENS_12noncopyable_11noncopyableENS0_6detail13not_specifiedEE8def_implIS3_MS3_FvddddddENS8_10def_helperIPKcS9_S9_S9_EEEEvPT_SG_T0_RKT1_z
   fun:_Z12export_mintsv
   fun:_Z18init_module_PsiModv
   fun:_ZN5boost6python21handle_exception_implENS_9function0IvEE
   fun:_ZN5boost6python16handle_exceptionIPFvvEEEbT_
   fun:_ZN5boost6python6detail11init_moduleEPKcPFvvE
   fun:_PyImport_FixupExtension
   fun:_PyImport_FixupExtension
   fun:PyImport_ReloadModule
}
{
   Boost Python memort leak
   Memcheck:Leak
   fun:malloc
   fun:_Znwm
   fun:_ZN5boost6python6detail17make_function_auxIMN3psi17ExternalPotentialEFvdddddddddENS0_21default_call_policiesENS_3mpl8vector11IvRS4_dddddddddEEN4mpl_4int_ILi0EEEEENS0_3api6objectET_RKT0_RKT1_RKSt4pairIPKNS1_7keywordESR_ET2_
   fun:_ZN5boost6python6class_IN3psi17ExternalPotentialENS_10shared_ptrIS3_EENS_12noncopyable_11noncopyableENS0_6detail13not_specifiedEE8def_implIS3_MS3_FvdddddddddENS8_10def_helperIPKcS9_S9_S9_EEEEvPT_SG_T0_RKT1_z
   fun:_Z12export_mintsv
   fun:_Z18init_module_PsiModv
   fun:_ZN5boost6python21handle_exception_implENS_9function0IvEE
   fun:_ZN5boost6python16handle_exceptionIPFvvEEEbT_
   fun:_ZN5boost6python6detail11init_moduleEPKcPFvvE
   fun:_PyImport_FixupExtension
   fun:_PyImport_FixupExtension
   fun:PyImport_ReloadModule
}
{
   Boost Python memort leak
   Memcheck:Leak
   fun:malloc
   fun:_Znwm
   fun:_ZN5boost6python6detail17make_function_auxIMN3psi17ExternalPotentialEFvdddENS0_21default_call_policiesENS_3mpl7vector5IvRS4_dddEEN4mpl_4int_ILi0EEEEENS0_3api6objectET_RKT0_RKT1_RKSt4pairIPKNS1_7keywordESR_ET2_
   fun:_ZN5boost6python6class_IN3psi17ExternalPotentialENS_10shared_ptrIS3_EENS_12noncopyable_11noncopyableENS0_6detail13not_specifiedEE8def_implIS3_MS3_FvdddENS8_10def_helperIPKcS9_S9_S9_EEEEvPT_SG_T0_RKT1_z
   fun:_Z12export_mintsv
   fun:_Z18init_module_PsiModv
   fun:_ZN5boost6python21handle_exception_implENS_9function0IvEE
   fun:_ZN5boost6python16handle_exceptionIPFvvEEEbT_
   fun:_ZN5boost6python6detail11init_moduleEPKcPFvvE
   fun:_PyImport_FixupExtension
   fun:_PyImport_FixupExtension
   fun:PyImport_ReloadModule
}
{
   Boost Python memort leak
   Memcheck:Leak
   fun:malloc
   fun:_Znwm
   fun:_ZN5boost6python6detail17make_function_auxIMN3psi17ExternalPotentialEFvNS_10shared_ptrINS3_6MatrixEEEENS0_21default_call_policiesENS_3mpl7vector3IvRS4_S7_EEN4mpl_4int_ILi0EEEEENS0_3api6objectET_RKT0_RKT1_RKSt4pairIPKNS1_7keywordESU_ET2_
   fun:_ZN5boost6python6class_IN3psi17ExternalPotentialENS_10shared_ptrIS3_EENS_12noncopyable_11noncopyableENS0_6detail13not_specifiedEE8def_implIS3_MS3_FvNS4_INS2_6MatrixEEEENS8_10def_helperIPKcS9_S9_S9_EEEEvPT_SI_T0_RKT1_z
   fun:_Z12export_mintsv
   fun:_Z18init_module_PsiModv
   fun:_ZN5boost6python21handle_exception_implENS_9function0IvEE
   fun:_ZN5boost6python16handle_exceptionIPFvvEEEbT_
   fun:_ZN5boost6python6detail11init_moduleEPKcPFvvE
   fun:_PyImport_FixupExtension
   fun:_PyImport_FixupExtension
   fun:PyImport_ReloadModule
}
{
   Boost Python memort leak
   Memcheck:Leak
   fun:malloc
   fun:_Znwm
   fun:_ZN5boost6python6detail17make_function_auxIMN3psi17ExternalPotentialEFvvENS0_21default_call_policiesENS_3mpl7vector2IvRS4_EEN4mpl_4int_ILi0EEEEENS0_3api6objectET_RKT0_RKT1_RKSt4pairIPKNS1_7keywordESR_ET2_
   fun:_ZN5boost6python6class_IN3psi17ExternalPotentialENS_10shared_ptrIS3_EENS_12noncopyable_11noncopyableENS0_6detail13not_specifiedEE8def_implIS3_MS3_FvvENS8_10def_helperIPKcS9_S9_S9_EEEEvPT_SG_T0_RKT1_z
   fun:_Z12export_mintsv
   fun:_Z18init_module_PsiModv
   fun:_ZN5boost6python21handle_exception_implENS_9function0IvEE
   fun:_ZN5boost6python16handle_exceptionIPFvvEEEbT_
   fun:_ZN5boost6python6detail11init_moduleEPKcPFvvE
   fun:_PyImport_FixupExtension
   fun:_PyImport_FixupExtension
   fun:PyImport_ReloadModule
}
{
   Boost Python memort leak
   Memcheck:Leak
   fun:malloc
   fun:_Znwm
   fun:_ZN5boost6python6detail17make_function_auxIMN3psi17ExternalPotentialEFNS_10shared_ptrINS3_6MatrixEEENS5_INS3_8BasisSetEEEENS0_21default_call_policiesENS_3mpl7vector3IS7_RS4_S9_EEN4mpl_4int_ILi0EEEEENS0_3api6objectET_RKT0_RKT1_RKSt4pairIPKNS1_7keywordESW_ET2_
   fun:_ZN5boost6python6class_IN3psi17ExternalPotentialENS_10shared_ptrIS3_EENS_12noncopyable_11noncopyableENS0_6detail13not_specifiedEE8def_implIS3_MS3_FNS4_INS2_6MatrixEEENS4_INS2_8BasisSetEEEENS8_10def_helperIPKcS9_S9_S9_EEEEvPT_SK_T0_RKT1_z
   fun:_Z12export_mintsv
   fun:_Z18init_module_PsiModv
   fun:_ZN5boost6python21handle_exception_implENS_9function0IvEE
   fun:_ZN5boost6python16handle_exceptionIPFvvEEEbT_
   fun:_ZN5boost6python6detail11init_moduleEPKcPFvvE
   fun:_PyImport_FixupExtension
   fun:_PyImport_FixupExtension
   fun:PyImport_ReloadModule
}
{
   Boost Python memort leak
   Memcheck:Leak
   fun:malloc
   fun:_Znwm
   fun:_ZN5boost6python6detail17make_function_auxIMN3psi17ExternalPotentialEFddddENS0_21default_call_policiesENS_3mpl7vector5IdRS4_dddEEN4mpl_4int_ILi0EEEEENS0_3api6objectET_RKT0_RKT1_RKSt4pairIPKNS1_7keywordESR_ET2_
   fun:_ZN5boost6python6class_IN3psi17ExternalPotentialENS_10shared_ptrIS3_EENS_12noncopyable_11noncopyableENS0_6detail13not_specifiedEE8def_implIS3_MS3_FddddENS8_10def_helperIPKcS9_S9_S9_EEEEvPT_SG_T0_RKT1_z
   fun:_Z12export_mintsv
   fun:_Z18init_module_PsiModv
   fun:_ZN5boost6python21handle_exception_implENS_9function0IvEE
   fun:_ZN5boost6python16handle_exceptionIPFvvEEEbT_
   fun:_ZN5boost6python6detail11init_moduleEPKcPFvvE
   fun:_PyImport_FixupExtension
   fun:_PyImport_FixupExtension
   fun:PyImport_ReloadModule
}
{
   Boost Python memort leak
   Memcheck:Leak
   fun:malloc
   fun:_Znwm
   fun:_ZN5boost6python6detail17make_function_auxIMN3psi17ExternalPotentialEKFvvENS0_21default_call_policiesENS_3mpl7vector2IvRS4_EEN4mpl_4int_ILi0EEEEENS0_3api6objectET_RKT0_RKT1_RKSt4pairIPKNS1_7keywordESR_ET2_
   fun:_ZN5boost6python6class_IN3psi17ExternalPotentialENS_10shared_ptrIS3_EENS_12noncopyable_11noncopyableENS0_6detail13not_specifiedEE8def_implIS3_MS3_KFvvENS8_10def_helperIPKcS9_S9_S9_EEEEvPT_SG_T0_RKT1_z
   fun:_Z12export_mintsv
   fun:_Z18init_module_PsiModv
   fun:_ZN5boost6python21handle_exception_implENS_9function0IvEE
   fun:_ZN5boost6python16handle_exceptionIPFvvEEEbT_
   fun:_ZN5boost6python6detail11init_moduleEPKcPFvvE
   fun:_PyImport_FixupExtension
   fun:_PyImport_FixupExtension
   fun:PyImport_ReloadModule
}
{
   Boost Python memort leak
   Memcheck:Leak
   fun:malloc
   fun:_Znwm
   fun:_ZN5boost6python6detail17make_function_auxIMN3psi12MoldenWriterEFvRKSsENS0_21default_call_policiesENS_3mpl7vector3IvRS4_S6_EEN4mpl_4int_ILi0EEEEENS0_3api6objectET_RKT0_RKT1_RKSt4pairIPKNS1_7keywordEST_ET2_
   fun:_ZN5boost6python6class_IN3psi12MoldenWriterENS_10shared_ptrIS3_EENS0_6detail13not_specifiedES7_E8def_implIS3_MS3_FvRKSsENS6_10def_helperIPKcS7_S7_S7_EEEEvPT_SG_T0_RKT1_z
   fun:_Z12export_mintsv
   fun:_Z18init_module_PsiModv
   fun:_ZN5boost6python21handle_exception_implENS_9function0IvEE
   fun:_ZN5boost6python16handle_exceptionIPFvvEEEbT_
   fun:_ZN5boost6python6detail11init_moduleEPKcPFvvE
   fun:_PyImport_FixupExtension
   fun:_PyImport_FixupExtension
   fun:PyImport_ReloadModule
}
{
   Boost Python memort leak
   Memcheck:Leak
   fun:malloc
   fun:_Znwm
   fun:_ZN5boost6python6detail17make_function_auxIMN3psi9NBOWriterEFvRKSsENS0_21default_call_policiesENS_3mpl7vector3IvRS4_S6_EEN4mpl_4int_ILi0EEEEENS0_3api6objectET_RKT0_RKT1_RKSt4pairIPKNS1_7keywordEST_ET2_
   fun:_ZN5boost6python6class_IN3psi9NBOWriterENS_10shared_ptrIS3_EENS0_6detail13not_specifiedES7_E8def_implIS3_MS3_FvRKSsENS6_10def_helperIPKcS7_S7_S7_EEEEvPT_SG_T0_RKT1_z
   fun:_Z12export_mintsv
   fun:_Z18init_module_PsiModv
   fun:_ZN5boost6python21handle_exception_implENS_9function0IvEE
   fun:_ZN5boost6python16handle_exceptionIPFvvEEEbT_
   fun:_ZN5boost6python6detail11init_moduleEPKcPFvvE
   fun:_PyImport_FixupExtension
   fun:_PyImport_FixupExtension
   fun:PyImport_ReloadModule
}
{
   Boost Python memort leak
   Memcheck:Leak
   fun:malloc
   fun:_Znwm
   fun:_ZN5boost6python6detail17make_function_auxIMN3psi16OperatorSymmetryEFSt6vectorINS_10shared_ptrINS3_6MatrixEEESaIS8_EERKSsENS0_21default_call_policiesENS_3mpl7vector3ISA_RS4_SC_EEN4mpl_4int_ILi0EEEEENS0_3api6objectET_RKT0_RKT1_RKSt4pairIPKNS1_7keywordESZ_ET2_
   fun:_ZN5boost6python6class_IN3psi16OperatorSymmetryENS_10shared_ptrIS3_EENS0_6detail13not_specifiedES7_E8def_implIS3_MS3_FSt6vectorINS4_INS2_6MatrixEEESaISC_EERKSsENS6_10def_helperIPKcS7_S7_S7_EEEEvPT_SL_T0_RKT1_z
   fun:_Z12export_mintsv
   fun:_Z18init_module_PsiModv
   fun:_ZN5boost6python21handle_exception_implENS_9function0IvEE
   fun:_ZN5boost6python16handle_exceptionIPFvvEEEbT_
   fun:_ZN5boost6python6detail11init_moduleEPKcPFvvE
   fun:_PyImport_FixupExtension
   fun:_PyImport_FixupExtension
   fun:PyImport_ReloadModule
}
{
   Boost Python memort leak
   Memcheck:Leak
   fun:malloc
   fun:_Znwm
   fun:_ZN5boost6python6detail17make_function_auxIMN3psi7Process11EnvironmentEFSsRKSsENS0_21default_call_policiesENS_3mpl7vector3ISsRS5_S7_EEN4mpl_4int_ILi0EEEEENS0_3api6objectET_RKT0_RKT1_RKSt4pairIPKNS1_7keywordESU_ET2_
   fun:_ZN5boost6python6class_IN3psi7Process11EnvironmentENS0_6detail13not_specifiedES6_S6_E8def_implIS4_MS4_FSsRKSsENS5_10def_helperIPKcS6_S6_S6_EEEEvPT_SF_T0_RKT1_z
   fun:_Z18init_module_PsiModv
   fun:_ZN5boost6python21handle_exception_implENS_9function0IvEE
   fun:_ZN5boost6python16handle_exceptionIPFvvEEEbT_
   fun:_ZN5boost6python6detail11init_moduleEPKcPFvvE
   fun:_PyImport_FixupExtension
   fun:_PyImport_FixupExtension
   fun:PyImport_ReloadModule
   fun:PyImport_ReloadModule
}
{
   Boost Python memort leak
   Memcheck:Leak
   fun:malloc
   fun:_Znwm
   fun:_ZN5boost6python6detail17make_function_auxIMN3psi7Process9ArgumentsEFSsiENS0_21default_call_policiesENS_3mpl7vector3ISsRS5_iEEN4mpl_4int_ILi0EEEEENS0_3api6objectET_RKT0_RKT1_RKSt4pairIPKNS1_7keywordESS_ET2_
   fun:_ZN5boost6python6class_IN3psi7Process9ArgumentsENS0_6detail13not_specifiedES6_S6_E8def_implIS4_MS4_FSsiENS5_10def_helperIPKcS6_S6_S6_EEEEvPT_SD_T0_RKT1_z
   fun:_Z18init_module_PsiModv
   fun:_ZN5boost6python21handle_exception_implENS_9function0IvEE
   fun:_ZN5boost6python16handle_exceptionIPFvvEEEbT_
   fun:_ZN5boost6python6detail11init_moduleEPKcPFvvE
   fun:_PyImport_FixupExtension
   fun:_PyImport_FixupExtension
   fun:PyImport_ReloadModule
   fun:PyImport_ReloadModule
}
{
   Boost Python memort leak
   Memcheck:Leak
   fun:malloc
   fun:_Znwm
   fun:_ZNSs4_Rep9_S_createEmmRKSaIcE
   fun:_ZNSs12_S_constructIPKcEEPcT_S3_RKSaIcESt20forward_iterator_tag
   fun:_ZNSsC2EPKcRKSaIcE
   fun:_GLOBAL__I__ZN4yeti6MallocINS_4SortEE12initialized_E
   fun:_ZN16ImageLoaderMachO18doModInitFunctionsERKN11ImageLoader11LinkContextE
   fun:_ZN16ImageLoaderMachO16doInitializationERKN11ImageLoader11LinkContextE
   fun:_ZN11ImageLoader23recursiveInitializationERKNS_11LinkContextEjRNS_21InitializerTimingListE
   fun:_ZN11ImageLoader15runInitializersERKNS_11LinkContextERNS_21InitializerTimingListE
   fun:_ZN4dyld24initializeMainExecutableEv
   fun:_ZN4dyld5_mainEPK12macho_headermiPPKcS5_S5_
}
{
   Boost Python memort leak
   Memcheck:Leak
   fun:malloc
   fun:_Znwm
   fun:_ZNSs4_Rep9_S_createEmmRKSaIcE
   fun:_ZNSs12_S_constructIPKcEEPcT_S3_RKSaIcESt20forward_iterator_tag
   fun:_ZNSsC2EPKcRKSaIcE
   fun:_GLOBAL__I__ZN4yeti6MallocINS_4TaskEE12initialized_E
   fun:_ZN16ImageLoaderMachO18doModInitFunctionsERKN11ImageLoader11LinkContextE
   fun:_ZN16ImageLoaderMachO16doInitializationERKN11ImageLoader11LinkContextE
   fun:_ZN11ImageLoader23recursiveInitializationERKNS_11LinkContextEjRNS_21InitializerTimingListE
   fun:_ZN11ImageLoader15runInitializersERKNS_11LinkContextERNS_21InitializerTimingListE
   fun:_ZN4dyld24initializeMainExecutableEv
   fun:_ZN4dyld5_mainEPK12macho_headermiPPKcS5_S5_
}
{
   Boost Python memort leak
   Memcheck:Leak
   fun:malloc
   fun:_Znwm
   fun:_ZNSs4_Rep9_S_createEmmRKSaIcE
   fun:_ZNSs12_S_constructIPKcEEPcT_S3_RKSaIcESt20forward_iterator_tag
   fun:_ZNSsC2EPKcRKSaIcE
   fun:_GLOBAL__I__ZN8smartptr11SerialClassIN4yeti6MatrixEE10classname_E
   fun:_ZN16ImageLoaderMachO18doModInitFunctionsERKN11ImageLoader11LinkContextE
   fun:_ZN16ImageLoaderMachO16doInitializationERKN11ImageLoader11LinkContextE
   fun:_ZN11ImageLoader23recursiveInitializationERKNS_11LinkContextEjRNS_21InitializerTimingListE
   fun:_ZN11ImageLoader15runInitializersERKNS_11LinkContextERNS_21InitializerTimingListE
   fun:_ZN4dyld24initializeMainExecutableEv
   fun:_ZN4dyld5_mainEPK12macho_headermiPPKcS5_S5_
}
{
   Boost Python memort leak
   Memcheck:Leak
   fun:malloc
   fun:_Znwm
   fun:_ZNSs4_Rep9_S_createEmmRKSaIcE
   fun:_ZNSs12_S_constructIPKcEEPcT_S3_RKSaIcESt20forward_iterator_tag
   fun:_ZNSsC2EPKcRKSaIcE
   fun:_GLOBAL__I__ZN8smartptr11SerialClassIN4yeti6MatrixEE10classname_E
   fun:_ZN16ImageLoaderMachO18doModInitFunctionsERKN11ImageLoader11LinkContextE
   fun:_ZN16ImageLoaderMachO16doInitializationERKN11ImageLoader11LinkContextE
   fun:_ZN11ImageLoader23recursiveInitializationERKNS_11LinkContextEjRNS_21InitializerTimingListE
   fun:_ZN11ImageLoader15runInitializersERKNS_11LinkContextERNS_21InitializerTimingListE
   fun:_ZN4dyld24initializeMainExecutableEv
   fun:_ZN4dyld5_mainEPK12macho_headermiPPKcS5_S5_
}
{
   Boost Python memort leak
   Memcheck:Leak
   fun:malloc
   fun:_Znwm
   fun:_ZNSs4_Rep9_S_createEmmRKSaIcE
   fun:_ZNSs12_S_constructIPKcEEPcT_S3_RKSaIcESt20forward_iterator_tag
   fun:_ZNSsC2EPKcRKSaIcE
   fun:_GLOBAL__I__ZN4yeti6MallocINS_6TensorEE12initialized_E
   fun:_ZN16ImageLoaderMachO18doModInitFunctionsERKN11ImageLoader11LinkContextE
   fun:_ZN16ImageLoaderMachO16doInitializationERKN11ImageLoader11LinkContextE
   fun:_ZN11ImageLoader23recursiveInitializationERKNS_11LinkContextEjRNS_21InitializerTimingListE
   fun:_ZN11ImageLoader15runInitializersERKNS_11LinkContextERNS_21InitializerTimingListE
   fun:_ZN4dyld24initializeMainExecutableEv
   fun:_ZN4dyld5_mainEPK12macho_headermiPPKcS5_S5_
}
{
   Boost Python memort leak
   Memcheck:Leak
   fun:malloc
   fun:_Znwm
   fun:_ZNSs4_Rep9_S_createEmmRKSaIcE
   fun:_ZNSs12_S_constructIPKcEEPcT_S3_RKSaIcESt20forward_iterator_tag
   fun:_ZNSsC2EPKcRKSaIcE
   fun:_GLOBAL__I__ZN4yeti6MallocINS_14DataCacheEntryEE12initialized_E
   fun:_ZN16ImageLoaderMachO18doModInitFunctionsERKN11ImageLoader11LinkContextE
   fun:_ZN16ImageLoaderMachO16doInitializationERKN11ImageLoader11LinkContextE
   fun:_ZN11ImageLoader23recursiveInitializationERKNS_11LinkContextEjRNS_21InitializerTimingListE
   fun:_ZN11ImageLoader15runInitializersERKNS_11LinkContextERNS_21InitializerTimingListE
   fun:_ZN4dyld24initializeMainExecutableEv
   fun:_ZN4dyld5_mainEPK12macho_headermiPPKcS5_S5_
}
{
   Boost Python memort leak
   Memcheck:Leak
   fun:malloc
   fun:_Znwm
   fun:_ZNSs4_Rep9_S_createEmmRKSaIcE
   fun:_ZNSs12_S_constructIPKcEEPcT_S3_RKSaIcESt20forward_iterator_tag
   fun:_ZNSsC2EPKcRKSaIcE
   fun:_GLOBAL__I__ZN4yeti10FastMalloc19registration_queue_E
   fun:_ZN16ImageLoaderMachO18doModInitFunctionsERKN11ImageLoader11LinkContextE
   fun:_ZN16ImageLoaderMachO16doInitializationERKN11ImageLoader11LinkContextE
   fun:_ZN11ImageLoader23recursiveInitializationERKNS_11LinkContextEjRNS_21InitializerTimingListE
   fun:_ZN11ImageLoader15runInitializersERKNS_11LinkContextERNS_21InitializerTimingListE
   fun:_ZN4dyld24initializeMainExecutableEv
   fun:_ZN4dyld5_mainEPK12macho_headermiPPKcS5_S5_
}
{
   Boost Python memort leak
   Memcheck:Leak
   fun:malloc
   fun:_Znwm
   fun:_ZNSs4_Rep9_S_createEmmRKSaIcE
   fun:_ZNSs12_S_constructIPKcEEPcT_S3_RKSaIcESt20forward_iterator_tag
   fun:_ZNSsC2EPKcRKSaIcE
   fun:_GLOBAL__I__ZN4yeti6MallocINS_10ThreadLockEE12initialized_E
   fun:_ZN16ImageLoaderMachO18doModInitFunctionsERKN11ImageLoader11LinkContextE
   fun:_ZN16ImageLoaderMachO16doInitializationERKN11ImageLoader11LinkContextE
   fun:_ZN11ImageLoader23recursiveInitializationERKNS_11LinkContextEjRNS_21InitializerTimingListE
   fun:_ZN11ImageLoader15runInitializersERKNS_11LinkContextERNS_21InitializerTimingListE
   fun:_ZN4dyld24initializeMainExecutableEv
   fun:_ZN4dyld5_mainEPK12macho_headermiPPKcS5_S5_
}
{
   Boost Python memort leak
   Memcheck:Leak
   fun:malloc
   fun:_Znwm
   fun:_ZNSs4_Rep9_S_createEmmRKSaIcE
   fun:_ZNSs12_S_constructIPKcEEPcT_S3_RKSaIcESt20forward_iterator_tag
   fun:_ZNSsC2EPKcRKSaIcE
   fun:_GLOBAL__I__ZN4yeti11TensorBlock19in_core_controller_E
   fun:_ZN16ImageLoaderMachO18doModInitFunctionsERKN11ImageLoader11LinkContextE
   fun:_ZN16ImageLoaderMachO16doInitializationERKN11ImageLoader11LinkContextE
   fun:_ZN11ImageLoader23recursiveInitializationERKNS_11LinkContextEjRNS_21InitializerTimingListE
   fun:_ZN11ImageLoader15runInitializersERKNS_11LinkContextERNS_21InitializerTimingListE
   fun:_ZN4dyld24initializeMainExecutableEv
   fun:_ZN4dyld5_mainEPK12macho_headermiPPKcS5_S5_
}
{
   Boost Python memort leak
   Memcheck:Leak
   fun:malloc
   fun:_Znwm
   fun:_ZNSs4_Rep9_S_createEmmRKSaIcE
   fun:_ZNSs12_S_constructIPKcEEPcT_S3_RKSaIcESt20forward_iterator_tag
   fun:_ZNSsC2EPKcRKSaIcE
   fun:_GLOBAL__I__ZN4yeti6MallocINS_12StorageBlockEE12initialized_E
   fun:_ZN16ImageLoaderMachO18doModInitFunctionsERKN11ImageLoader11LinkContextE
   fun:_ZN16ImageLoaderMachO16doInitializationERKN11ImageLoader11LinkContextE
   fun:_ZN11ImageLoader23recursiveInitializationERKNS_11LinkContextEjRNS_21InitializerTimingListE
   fun:_ZN11ImageLoader15runInitializersERKNS_11LinkContextERNS_21InitializerTimingListE
   fun:_ZN4dyld24initializeMainExecutableEv
   fun:_ZN4dyld5_mainEPK12macho_headermiPPKcS5_S5_
}
{
   Boost Python memort leak
   Memcheck:Leak
   fun:malloc
   fun:_Znwm
   fun:_ZNSs4_Rep9_S_createEmmRKSaIcE
   fun:_ZNSs12_S_constructIPKcEEPcT_S3_RKSaIcESt20forward_iterator_tag
   fun:_ZNSsC2EPKcRKSaIcE
   fun:_GLOBAL__I__ZN4yeti6MallocINS_14DataCacheEntryEE12initialized_E
   fun:_ZN16ImageLoaderMachO18doModInitFunctionsERKN11ImageLoader11LinkContextE
   fun:_ZN16ImageLoaderMachO16doInitializationERKN11ImageLoader11LinkContextE
   fun:_ZN11ImageLoader23recursiveInitializationERKNS_11LinkContextEjRNS_21InitializerTimingListE
   fun:_ZN11ImageLoader15runInitializersERKNS_11LinkContextERNS_21InitializerTimingListE
   fun:_ZN4dyld24initializeMainExecutableEv
   fun:_ZN4dyld5_mainEPK12macho_headermiPPKcS5_S5_
}
{
   Boost Python memort leak
   Memcheck:Leak
   fun:malloc
   fun:_Znwm
   fun:_ZNSs4_Rep9_S_createEmmRKSaIcE
   fun:_ZNSs12_S_constructIPKcEEPcT_S3_RKSaIcESt20forward_iterator_tag
   fun:_ZNSsC2EPKcRKSaIcE
   fun:_GLOBAL__I__ZN4yeti11TensorBlock19in_core_controller_E
   fun:_ZN16ImageLoaderMachO18doModInitFunctionsERKN11ImageLoader11LinkContextE
   fun:_ZN16ImageLoaderMachO16doInitializationERKN11ImageLoader11LinkContextE
   fun:_ZN11ImageLoader23recursiveInitializationERKNS_11LinkContextEjRNS_21InitializerTimingListE
   fun:_ZN11ImageLoader15runInitializersERKNS_11LinkContextERNS_21InitializerTimingListE
   fun:_ZN4dyld24initializeMainExecutableEv
   fun:_ZN4dyld5_mainEPK12macho_headermiPPKcS5_S5_
}
{
   Boost Python memort leak
   Memcheck:Leak
   fun:malloc
   fun:_Znwm
   fun:_ZN5boost6python6detail17make_function_auxINS0_7objects6detail8py_iter_ISt6vectorINS_10shared_ptrIN3psi6MatrixEEESaISA_EEN9__gnu_cxx17__normal_iteratorIPSA_SC_EENS_3_bi16protected_bind_tINSH_6bind_tISG_PFSG_RSC_ENSH_5list1INS_3argILi1EEEEEEEEESS_NS0_19return_value_policyINS0_15return_by_valueENS0_21default_call_policiesEEEEESV_NS_3mpl7vector2INS3_14iterator_rangeISW_SG_EENS0_14back_referenceISK_EEEEEENS0_3api6objectET_RKT0_RKT1_
   fun:_ZNK5boost6python14indexing_suiteISt6vectorINS_10shared_ptrIN3psi6MatrixEEESaIS6_EENS0_6detail29final_vector_derived_policiesIS8_Lb1EEELb1ELb0ES6_mS6_E5visitINS0_6class_IS8_NS9_13not_specifiedESF_SF_EEEEvRT_
   fun:_Z12export_mintsv
   fun:_Z18init_module_PsiModv
   fun:_ZN5boost6python21handle_exception_implENS_9function0IvEE
   fun:_ZN5boost6python16handle_exceptionIPFvvEEEbT_
   fun:_ZN5boost6python6detail11init_moduleEPKcPFvvE
   fun:_PyImport_FixupExtension
   fun:_PyImport_FixupExtension
   fun:PyImport_ReloadModule
}
{
   Boost Python memort leak
   Memcheck:Leak
   fun:malloc
   fun:_Znwm
   fun:_ZNSs4_Rep9_S_createEmmRKSaIcE
   fun:_ZNSs12_S_constructIPKcEEPcT_S3_RKSaIcESt20forward_iterator_tag
   fun:_ZNSsC2EPKcRKSaIcE
   fun:_GLOBAL__I__ZN4yeti11TensorBlock19in_core_controller_E
   fun:_ZN16ImageLoaderMachO18doModInitFunctionsERKN11ImageLoader11LinkContextE
   fun:_ZN16ImageLoaderMachO16doInitializationERKN11ImageLoader11LinkContextE
   fun:_ZN11ImageLoader23recursiveInitializationERKNS_11LinkContextEjRNS_21InitializerTimingListE
   fun:_ZN11ImageLoader15runInitializersERKNS_11LinkContextERNS_21InitializerTimingListE
   fun:_ZN4dyld24initializeMainExecutableEv
   fun:_ZN4dyld5_mainEPK12macho_headermiPPKcS5_S5_
}
{
   Boost Python memort leak
   Memcheck:Leak
   fun:malloc
   fun:_Znwm
   fun:_ZN5boost6python7objects15function_objectERKNS1_11py_functionERKSt4pairIPKNS0_6detail7keywordES9_E
   fun:_ZN5boost6python6detail17make_function_auxIPFvP7_objectENS0_21default_call_policiesENS_3mpl7vector2IvS4_EEN4mpl_4int_ILi0EEEEENS0_3api6objectET_RKT0_RKT1_RKSt4pairIPKNS1_7keywordESQ_ET2_
   fun:_ZN5boost6python6detail12def_init_auxINS0_6class_IN3psi6OEPropENS_10shared_ptrIS5_EENS1_13not_specifiedES8_EENS0_21default_call_policiesENS_3mpl7vector0IN4mpl_2naEEENSB_4sizeISF_EEEEvRT_RKT1_T2_RKT0_PKcRKSt4pairIPKNS1_7keywordESW_E
   fun:_ZN5boost6python6class_IN3psi6OEPropENS_10shared_ptrIS3_EENS0_6detail13not_specifiedES7_EC2EPKcSA_
   fun:_Z13export_oepropv
   fun:_Z18init_module_PsiModv
   fun:_ZN5boost6python21handle_exception_implENS_9function0IvEE
   fun:_ZN5boost6python16handle_exceptionIPFvvEEEbT_
   fun:_ZN5boost6python6detail11init_moduleEPKcPFvvE
   fun:_PyImport_FixupExtension
}
{
   Boost Python memort leak
   Memcheck:Leak
   fun:malloc
   fun:_Znwm
   fun:_ZN5boost6python7objects15function_objectERKNS1_11py_functionERKSt4pairIPKNS0_6detail7keywordES9_E
   fun:_ZN5boost6python6detail17make_function_auxIMN3psi6OEPropEFvRKSsENS0_21default_call_policiesENS_3mpl7vector3IvRS4_S6_EEN4mpl_4int_ILi0EEEEENS0_3api6objectET_RKT0_RKT1_RKSt4pairIPKNS1_7keywordEST_ET2_
   fun:_ZN5boost6python6class_IN3psi6OEPropENS_10shared_ptrIS3_EENS0_6detail13not_specifiedES7_E8def_implIS3_MS3_FvRKSsENS6_10def_helperIPKcS7_S7_S7_EEEEvPT_SG_T0_RKT1_z
   fun:_Z13export_oepropv
   fun:_Z18init_module_PsiModv
   fun:_ZN5boost6python21handle_exception_implENS_9function0IvEE
   fun:_ZN5boost6python16handle_exceptionIPFvvEEEbT_
   fun:_ZN5boost6python6detail11init_moduleEPKcPFvvE
   fun:_PyImport_FixupExtension
   fun:_PyImport_FixupExtension
}
{
   Boost Python memort leak
   Memcheck:Leak
   fun:malloc
   fun:_Znwm
   fun:_ZN5boost6python7objects15function_objectERKNS1_11py_functionERKSt4pairIPKNS0_6detail7keywordES9_E
   fun:_ZN5boost6python6detail17make_function_auxIMN3psi6OEPropEFvvENS0_21default_call_policiesENS_3mpl7vector2IvRS4_EEN4mpl_4int_ILi0EEEEENS0_3api6objectET_RKT0_RKT1_RKSt4pairIPKNS1_7keywordESR_ET2_
   fun:_ZN5boost6python6class_IN3psi6OEPropENS_10shared_ptrIS3_EENS0_6detail13not_specifiedES7_E8def_implIS3_MS3_FvvENS6_10def_helperIPKcS7_S7_S7_EEEEvPT_SE_T0_RKT1_z
   fun:_Z13export_oepropv
   fun:_Z18init_module_PsiModv
   fun:_ZN5boost6python21handle_exception_implENS_9function0IvEE
   fun:_ZN5boost6python16handle_exceptionIPFvvEEEbT_
   fun:_ZN5boost6python6detail11init_moduleEPKcPFvvE
   fun:_PyImport_FixupExtension
   fun:_PyImport_FixupExtension
}
{
   Boost Python memort leak
   Memcheck:Leak
   fun:malloc
   fun:_Znwm
   fun:_ZN5boost6python7objects15function_objectERKNS1_11py_functionERKSt4pairIPKNS0_6detail7keywordES9_E
   fun:_ZN5boost6python6detail17make_function_auxIPFvP7_objectENS0_21default_call_policiesENS_3mpl7vector2IvS4_EEN4mpl_4int_ILi0EEEEENS0_3api6objectET_RKT0_RKT1_RKSt4pairIPKNS1_7keywordESQ_ET2_
   fun:_ZN5boost6python6detail12def_init_auxINS0_6class_IN3psi8GridPropENS_10shared_ptrIS5_EENS1_13not_specifiedES8_EENS0_21default_call_policiesENS_3mpl7vector0IN4mpl_2naEEENSB_4sizeISF_EEEEvRT_RKT1_T2_RKT0_PKcRKSt4pairIPKNS1_7keywordESW_E
   fun:_ZN5boost6python6class_IN3psi8GridPropENS_10shared_ptrIS3_EENS0_6detail13not_specifiedES7_EC2EPKcSA_
   fun:_Z13export_oepropv
   fun:_Z18init_module_PsiModv
   fun:_ZN5boost6python21handle_exception_implENS_9function0IvEE
   fun:_ZN5boost6python16handle_exceptionIPFvvEEEbT_
   fun:_ZN5boost6python6detail11init_moduleEPKcPFvvE
   fun:_PyImport_FixupExtension
}
{
   Boost Python memort leak
   Memcheck:Leak
   fun:malloc
   fun:_Znwm
   fun:_ZN5boost6python7objects15function_objectERKNS1_11py_functionERKSt4pairIPKNS0_6detail7keywordES9_E
   fun:_ZN5boost6python6detail17make_function_auxIMN3psi8GridPropEFvRKSsENS0_21default_call_policiesENS_3mpl7vector3IvRS4_S6_EEN4mpl_4int_ILi0EEEEENS0_3api6objectET_RKT0_RKT1_RKSt4pairIPKNS1_7keywordEST_ET2_
   fun:_ZN5boost6python6class_IN3psi8GridPropENS_10shared_ptrIS3_EENS0_6detail13not_specifiedES7_E8def_implIS3_MS3_FvRKSsENS6_10def_helperIPKcS7_S7_S7_EEEEvPT_SG_T0_RKT1_z
   fun:_Z13export_oepropv
   fun:_Z18init_module_PsiModv
   fun:_ZN5boost6python21handle_exception_implENS_9function0IvEE
   fun:_ZN5boost6python16handle_exceptionIPFvvEEEbT_
   fun:_ZN5boost6python6detail11init_moduleEPKcPFvvE
   fun:_PyImport_FixupExtension
   fun:_PyImport_FixupExtension
}
{
   Boost Python memort leak
   Memcheck:Leak
   fun:malloc
   fun:_Znwm
   fun:_ZN5boost6python7objects15function_objectERKNS1_11py_functionERKSt4pairIPKNS0_6detail7keywordES9_E
   fun:_ZN5boost6python6detail17make_function_auxIMN3psi8GridPropEFvRKSsENS0_21default_call_policiesENS_3mpl7vector3IvRS4_S6_EEN4mpl_4int_ILi0EEEEENS0_3api6objectET_RKT0_RKT1_RKSt4pairIPKNS1_7keywordEST_ET2_
   fun:_ZN5boost6python6class_IN3psi8GridPropENS_10shared_ptrIS3_EENS0_6detail13not_specifiedES7_E8def_implIS3_MS3_FvRKSsENS6_10def_helperIPKcS7_S7_S7_EEEEvPT_SG_T0_RKT1_z
   fun:_Z13export_oepropv
   fun:_Z18init_module_PsiModv
   fun:_ZN5boost6python21handle_exception_implENS_9function0IvEE
   fun:_ZN5boost6python16handle_exceptionIPFvvEEEbT_
   fun:_ZN5boost6python6detail11init_moduleEPKcPFvvE
   fun:_PyImport_FixupExtension
   fun:_PyImport_FixupExtension
}
{
   Boost Python memort leak
   Memcheck:Leak
   fun:malloc
   fun:_Znwm
   fun:_ZN5boost6python7objects15function_objectERKNS1_11py_functionERKSt4pairIPKNS0_6detail7keywordES9_E
   fun:_ZN5boost6python6detail17make_function_auxIMN3psi8GridPropEFviiENS0_21default_call_policiesENS_3mpl7vector4IvRS4_iiEEN4mpl_4int_ILi0EEEEENS0_3api6objectET_RKT0_RKT1_RKSt4pairIPKNS1_7keywordESR_ET2_
   fun:_ZN5boost6python6class_IN3psi8GridPropENS_10shared_ptrIS3_EENS0_6detail13not_specifiedES7_E8def_implIS3_MS3_FviiENS6_10def_helperIPKcS7_S7_S7_EEEEvPT_SE_T0_RKT1_z
   fun:_Z13export_oepropv
   fun:_Z18init_module_PsiModv
   fun:_ZN5boost6python21handle_exception_implENS_9function0IvEE
   fun:_ZN5boost6python16handle_exceptionIPFvvEEEbT_
   fun:_ZN5boost6python6detail11init_moduleEPKcPFvvE
   fun:_PyImport_FixupExtension
   fun:_PyImport_FixupExtension
}
{
   Boost Python memort leak
   Memcheck:Leak
   fun:malloc
   fun:_Znwm
   fun:_ZN5boost6python7objects15function_objectERKNS1_11py_functionERKSt4pairIPKNS0_6detail7keywordES9_E
   fun:_ZN5boost6python6detail17make_function_auxIMN3psi8GridPropEFviiENS0_21default_call_policiesENS_3mpl7vector4IvRS4_iiEEN4mpl_4int_ILi0EEEEENS0_3api6objectET_RKT0_RKT1_RKSt4pairIPKNS1_7keywordESR_ET2_
   fun:_ZN5boost6python6class_IN3psi8GridPropENS_10shared_ptrIS3_EENS0_6detail13not_specifiedES7_E8def_implIS3_MS3_FviiENS6_10def_helperIPKcS7_S7_S7_EEEEvPT_SE_T0_RKT1_z
   fun:_Z13export_oepropv
   fun:_Z18init_module_PsiModv
   fun:_ZN5boost6python21handle_exception_implENS_9function0IvEE
   fun:_ZN5boost6python16handle_exceptionIPFvvEEEbT_
   fun:_ZN5boost6python6detail11init_moduleEPKcPFvvE
   fun:_PyImport_FixupExtension
   fun:_PyImport_FixupExtension
}
{
   Boost Python memort leak
   Memcheck:Leak
   fun:malloc
   fun:_Znwm
   fun:_ZN5boost6python7objects15function_objectERKNS1_11py_functionERKSt4pairIPKNS0_6detail7keywordES9_E
   fun:_ZN5boost6python6detail17make_function_auxIMN3psi8GridPropEFviiENS0_21default_call_policiesENS_3mpl7vector4IvRS4_iiEEN4mpl_4int_ILi0EEEEENS0_3api6objectET_RKT0_RKT1_RKSt4pairIPKNS1_7keywordESR_ET2_
   fun:_ZN5boost6python6class_IN3psi8GridPropENS_10shared_ptrIS3_EENS0_6detail13not_specifiedES7_E8def_implIS3_MS3_FviiENS6_10def_helperIPKcS7_S7_S7_EEEEvPT_SE_T0_RKT1_z
   fun:_Z13export_oepropv
   fun:_Z18init_module_PsiModv
   fun:_ZN5boost6python21handle_exception_implENS_9function0IvEE
   fun:_ZN5boost6python16handle_exceptionIPFvvEEEbT_
   fun:_ZN5boost6python6detail11init_moduleEPKcPFvvE
   fun:_PyImport_FixupExtension
   fun:_PyImport_FixupExtension
}
{
   Boost Python memort leak
   Memcheck:Leak
   fun:malloc
   fun:_Znwm
   fun:_ZN5boost6python7objects15function_objectERKNS1_11py_functionERKSt4pairIPKNS0_6detail7keywordES9_E
   fun:_ZN5boost6python6detail17make_function_auxIMN3psi8GridPropEFvdENS0_21default_call_policiesENS_3mpl7vector3IvRS4_dEEN4mpl_4int_ILi0EEEEENS0_3api6objectET_RKT0_RKT1_RKSt4pairIPKNS1_7keywordESR_ET2_
   fun:_ZN5boost6python6class_IN3psi8GridPropENS_10shared_ptrIS3_EENS0_6detail13not_specifiedES7_E8def_implIS3_MS3_FvdENS6_10def_helperIPKcS7_S7_S7_EEEEvPT_SE_T0_RKT1_z
   fun:_Z13export_oepropv
   fun:_Z18init_module_PsiModv
   fun:_ZN5boost6python21handle_exception_implENS_9function0IvEE
   fun:_ZN5boost6python16handle_exceptionIPFvvEEEbT_
   fun:_ZN5boost6python6detail11init_moduleEPKcPFvvE
   fun:_PyImport_FixupExtension
   fun:_PyImport_FixupExtension
}
{
   Boost Python memort leak
   Memcheck:Leak
   fun:malloc
   fun:_Znwm
   fun:_ZN5boost6python7objects15function_objectERKNS1_11py_functionERKSt4pairIPKNS0_6detail7keywordES9_E
   fun:_ZN5boost6python6detail17make_function_auxIMN3psi8GridPropEFviiiENS0_21default_call_policiesENS_3mpl7vector5IvRS4_iiiEEN4mpl_4int_ILi0EEEEENS0_3api6objectET_RKT0_RKT1_RKSt4pairIPKNS1_7keywordESR_ET2_
   fun:_ZN5boost6python6class_IN3psi8GridPropENS_10shared_ptrIS3_EENS0_6detail13not_specifiedES7_E8def_implIS3_MS3_FviiiENS6_10def_helperIPKcS7_S7_S7_EEEEvPT_SE_T0_RKT1_z
   fun:_Z13export_oepropv
   fun:_Z18init_module_PsiModv
   fun:_ZN5boost6python21handle_exception_implENS_9function0IvEE
   fun:_ZN5boost6python16handle_exceptionIPFvvEEEbT_
   fun:_ZN5boost6python6detail11init_moduleEPKcPFvvE
   fun:_PyImport_FixupExtension
   fun:_PyImport_FixupExtension
}
{
   Boost Python memort leak
   Memcheck:Leak
   fun:malloc
   fun:_Znwm
   fun:_ZN5boost6python7objects15function_objectERKNS1_11py_functionERKSt4pairIPKNS0_6detail7keywordES9_E
   fun:_ZN5boost6python6detail17make_function_auxIMN3psi8GridPropEFvdddENS0_21default_call_policiesENS_3mpl7vector5IvRS4_dddEEN4mpl_4int_ILi0EEEEENS0_3api6objectET_RKT0_RKT1_RKSt4pairIPKNS1_7keywordESR_ET2_
   fun:_ZN5boost6python6class_IN3psi8GridPropENS_10shared_ptrIS3_EENS0_6detail13not_specifiedES7_E8def_implIS3_MS3_FvdddENS6_10def_helperIPKcS7_S7_S7_EEEEvPT_SE_T0_RKT1_z
   fun:_Z13export_oepropv
   fun:_Z18init_module_PsiModv
   fun:_ZN5boost6python21handle_exception_implENS_9function0IvEE
   fun:_ZN5boost6python16handle_exceptionIPFvvEEEbT_
   fun:_ZN5boost6python6detail11init_moduleEPKcPFvvE
   fun:_PyImport_FixupExtension
   fun:_PyImport_FixupExtension
}
{
   Boost Python memort leak
   Memcheck:Leak
   fun:malloc
   fun:_Znwm
   fun:_ZN5boost6python7objects15function_objectERKNS1_11py_functionERKSt4pairIPKNS0_6detail7keywordES9_E
   fun:_ZN5boost6python6detail17make_function_auxIMN3psi8GridPropEFvdddENS0_21default_call_policiesENS_3mpl7vector5IvRS4_dddEEN4mpl_4int_ILi0EEEEENS0_3api6objectET_RKT0_RKT1_RKSt4pairIPKNS1_7keywordESR_ET2_
   fun:_ZN5boost6python6class_IN3psi8GridPropENS_10shared_ptrIS3_EENS0_6detail13not_specifiedES7_E8def_implIS3_MS3_FvdddENS6_10def_helperIPKcS7_S7_S7_EEEEvPT_SE_T0_RKT1_z
   fun:_Z13export_oepropv
   fun:_Z18init_module_PsiModv
   fun:_ZN5boost6python21handle_exception_implENS_9function0IvEE
   fun:_ZN5boost6python16handle_exceptionIPFvvEEEbT_
   fun:_ZN5boost6python6detail11init_moduleEPKcPFvvE
   fun:_PyImport_FixupExtension
   fun:_PyImport_FixupExtension
}
{
   Boost Python memort leak
   Memcheck:Leak
   fun:malloc
   fun:_Znwm
   fun:_ZN5boost6python7objects15function_objectERKNS1_11py_functionERKSt4pairIPKNS0_6detail7keywordES9_E
   fun:_ZN5boost6python6detail17make_function_auxIMN3psi8GridPropEKFiiENS0_21default_call_policiesENS_3mpl7vector3IiRS4_iEEN4mpl_4int_ILi0EEEEENS0_3api6objectET_RKT0_RKT1_RKSt4pairIPKNS1_7keywordESR_ET2_
   fun:_ZN5boost6python6class_IN3psi8GridPropENS_10shared_ptrIS3_EENS0_6detail13not_specifiedES7_E8def_implIS3_MS3_KFiiENS6_10def_helperIPKcS7_S7_S7_EEEEvPT_SE_T0_RKT1_z
   fun:_Z13export_oepropv
   fun:_Z18init_module_PsiModv
   fun:_ZN5boost6python21handle_exception_implENS_9function0IvEE
   fun:_ZN5boost6python16handle_exceptionIPFvvEEEbT_
   fun:_ZN5boost6python6detail11init_moduleEPKcPFvvE
   fun:_PyImport_FixupExtension
   fun:_PyImport_FixupExtension
}
{
   Boost Python memort leak
   Memcheck:Leak
   fun:malloc
   fun:_Znwm
   fun:_ZN5boost6python7objects15function_objectERKNS1_11py_functionERKSt4pairIPKNS0_6detail7keywordES9_E
   fun:_ZN5boost6python6detail17make_function_auxIMN3psi8GridPropEKFdiENS0_21default_call_policiesENS_3mpl7vector3IdRS4_iEEN4mpl_4int_ILi0EEEEENS0_3api6objectET_RKT0_RKT1_RKSt4pairIPKNS1_7keywordESR_ET2_
   fun:_ZN5boost6python6class_IN3psi8GridPropENS_10shared_ptrIS3_EENS0_6detail13not_specifiedES7_E8def_implIS3_MS3_KFdiENS6_10def_helperIPKcS7_S7_S7_EEEEvPT_SE_T0_RKT1_z
   fun:_Z13export_oepropv
   fun:_Z18init_module_PsiModv
   fun:_ZN5boost6python21handle_exception_implENS_9function0IvEE
   fun:_ZN5boost6python16handle_exceptionIPFvvEEEbT_
   fun:_ZN5boost6python6detail11init_moduleEPKcPFvvE
   fun:_PyImport_FixupExtension
   fun:_PyImport_FixupExtension
}
{
   Boost Python memort leak
   Memcheck:Leak
   fun:malloc
   fun:_Znwm
   fun:_ZN5boost6python7objects15function_objectERKNS1_11py_functionERKSt4pairIPKNS0_6detail7keywordES9_E
   fun:_ZN5boost6python6detail17make_function_auxIMN3psi8GridPropEKFdiENS0_21default_call_policiesENS_3mpl7vector3IdRS4_iEEN4mpl_4int_ILi0EEEEENS0_3api6objectET_RKT0_RKT1_RKSt4pairIPKNS1_7keywordESR_ET2_
   fun:_ZN5boost6python6class_IN3psi8GridPropENS_10shared_ptrIS3_EENS0_6detail13not_specifiedES7_E8def_implIS3_MS3_KFdiENS6_10def_helperIPKcS7_S7_S7_EEEEvPT_SE_T0_RKT1_z
   fun:_Z13export_oepropv
   fun:_Z18init_module_PsiModv
   fun:_ZN5boost6python21handle_exception_implENS_9function0IvEE
   fun:_ZN5boost6python16handle_exceptionIPFvvEEEbT_
   fun:_ZN5boost6python6detail11init_moduleEPKcPFvvE
   fun:_PyImport_FixupExtension
   fun:_PyImport_FixupExtension
}
{
   Boost Python memort leak
   Memcheck:Leak
   fun:malloc
   fun:_Znwm
   fun:_ZN5boost6python7objects15function_objectERKNS1_11py_functionERKSt4pairIPKNS0_6detail7keywordES9_E
   fun:_ZN5boost6python6detail17make_function_auxIMN3psi8GridPropEFvddENS0_21default_call_policiesENS_3mpl7vector4IvRS4_ddEEN4mpl_4int_ILi0EEEEENS0_3api6objectET_RKT0_RKT1_RKSt4pairIPKNS1_7keywordESR_ET2_
   fun:_ZN5boost6python6class_IN3psi8GridPropENS_10shared_ptrIS3_EENS0_6detail13not_specifiedES7_E8def_implIS3_MS3_FvddENS6_10def_helperIPKcS7_S7_S7_EEEEvPT_SE_T0_RKT1_z
   fun:_Z13export_oepropv
   fun:_Z18init_module_PsiModv
   fun:_ZN5boost6python21handle_exception_implENS_9function0IvEE
   fun:_ZN5boost6python16handle_exceptionIPFvvEEEbT_
   fun:_ZN5boost6python6detail11init_moduleEPKcPFvvE
   fun:_PyImport_FixupExtension
   fun:_PyImport_FixupExtension
}
{
   Boost Python memort leak
   Memcheck:Leak
   fun:malloc
   fun:_Znwm
   fun:_ZN5boost6python7objects15function_objectERKNS1_11py_functionERKSt4pairIPKNS0_6detail7keywordES9_E
   fun:_ZN5boost6python6detail17make_function_auxIMN3psi8GridPropEFvRKSsENS0_21default_call_policiesENS_3mpl7vector3IvRS4_S6_EEN4mpl_4int_ILi0EEEEENS0_3api6objectET_RKT0_RKT1_RKSt4pairIPKNS1_7keywordEST_ET2_
   fun:_ZN5boost6python6class_IN3psi8GridPropENS_10shared_ptrIS3_EENS0_6detail13not_specifiedES7_E8def_implIS3_MS3_FvRKSsENS6_10def_helperIPKcS7_S7_S7_EEEEvPT_SG_T0_RKT1_z
   fun:_Z13export_oepropv
   fun:_Z18init_module_PsiModv
   fun:_ZN5boost6python21handle_exception_implENS_9function0IvEE
   fun:_ZN5boost6python16handle_exceptionIPFvvEEEbT_
   fun:_ZN5boost6python6detail11init_moduleEPKcPFvvE
   fun:_PyImport_FixupExtension
   fun:_PyImport_FixupExtension
}
{
   Boost Python memort leak
   Memcheck:Leak
   fun:malloc
   fun:_Znwm
   fun:_ZN5boost6python7objects15function_objectERKNS1_11py_functionERKSt4pairIPKNS0_6detail7keywordES9_E
   fun:_ZN5boost6python6detail17make_function_auxIMN3psi8GridPropEFvvENS0_21default_call_policiesENS_3mpl7vector2IvRS4_EEN4mpl_4int_ILi0EEEEENS0_3api6objectET_RKT0_RKT1_RKSt4pairIPKNS1_7keywordESR_ET2_
   fun:_ZN5boost6python6class_IN3psi8GridPropENS_10shared_ptrIS3_EENS0_6detail13not_specifiedES7_E8def_implIS3_MS3_FvvENS6_10def_helperIPKcS7_S7_S7_EEEEvPT_SE_T0_RKT1_z
   fun:_Z13export_oepropv
   fun:_Z18init_module_PsiModv
   fun:_ZN5boost6python21handle_exception_implENS_9function0IvEE
   fun:_ZN5boost6python16handle_exceptionIPFvvEEEbT_
   fun:_ZN5boost6python6detail11init_moduleEPKcPFvvE
   fun:_PyImport_FixupExtension
   fun:_PyImport_FixupExtension
}
{
   Boost Python memort leak
   Memcheck:Leak
   fun:malloc
   fun:_Znwm
   fun:_ZN5boost6python7objects15function_objectERKNS1_11py_functionERKSt4pairIPKNS0_6detail7keywordES9_E
   fun:_ZN5boost6python6detail17make_function_auxIPFvP7_objectENS0_21default_call_policiesENS_3mpl7vector2IvS4_EEN4mpl_4int_ILi0EEEEENS0_3api6objectET_RKT0_RKT1_RKSt4pairIPKNS1_7keywordESQ_ET2_
   fun:_ZN5boost6python6detail12def_init_auxINS0_6class_ISt6vectorINS_10shared_ptrIN3psi6MatrixEEESaIS8_EENS1_13not_specifiedESB_SB_EENS0_21default_call_policiesENS_3mpl7vector0IN4mpl_2naEEENSE_4sizeISI_EEEEvRT_RKT1_T2_RKT0_PKcRKSt4pairIPKNS1_7keywordESZ_E
   fun:_ZN5boost6python6class_ISt6vectorINS_10shared_ptrIN3psi6MatrixEEESaIS6_EENS0_6detail13not_specifiedESA_SA_EC2EPKcSD_
   fun:_Z12export_mintsv
   fun:_Z18init_module_PsiModv
   fun:_ZN5boost6python21handle_exception_implENS_9function0IvEE
   fun:_ZN5boost6python16handle_exceptionIPFvvEEEbT_
   fun:_ZN5boost6python6detail11init_moduleEPKcPFvvE
   fun:_PyImport_FixupExtension
}
{
   Boost Python memort leak
   Memcheck:Leak
   fun:malloc
   fun:_Znwm
   fun:_ZN5boost6python7objects15function_objectERKNS1_11py_functionE
   fun:_ZN5boost6python6detail17make_function_auxINS0_7objects6detail8py_iter_ISt6vectorINS_10shared_ptrIN3psi6MatrixEEESaISA_EEN9__gnu_cxx17__normal_iteratorIPSA_SC_EENS_3_bi16protected_bind_tINSH_6bind_tISG_PFSG_RSC_ENSH_5list1INS_3argILi1EEEEEEEEESS_NS0_19return_value_policyINS0_15return_by_valueENS0_21default_call_policiesEEEEESV_NS_3mpl7vector2INS3_14iterator_rangeISW_SG_EENS0_14back_referenceISK_EEEEEENS0_3api6objectET_RKT0_RKT1_
   fun:_ZNK5boost6python14indexing_suiteISt6vectorINS_10shared_ptrIN3psi6MatrixEEESaIS6_EENS0_6detail29final_vector_derived_policiesIS8_Lb1EEELb1ELb0ES6_mS6_E5visitINS0_6class_IS8_NS9_13not_specifiedESF_SF_EEEEvRT_
   fun:_Z12export_mintsv
   fun:_Z18init_module_PsiModv
   fun:_ZN5boost6python21handle_exception_implENS_9function0IvEE
   fun:_ZN5boost6python16handle_exceptionIPFvvEEEbT_
   fun:_ZN5boost6python6detail11init_moduleEPKcPFvvE
   fun:_PyImport_FixupExtension
   fun:_PyImport_FixupExtension
}
{
   Boost Python memort leak
   Memcheck:Leak
   fun:malloc
   fun:_Znwm
   fun:_ZN5boost6python7objects15function_objectERKNS1_11py_functionERKSt4pairIPKNS0_6detail7keywordES9_E
   fun:_ZN5boost6python6detail17make_function_auxIPFmRSt6vectorINS_10shared_ptrIN3psi6MatrixEEESaIS7_EEENS0_21default_call_policiesENS_3mpl7vector2ImSA_EEN4mpl_4int_ILi0EEEEENS0_3api6objectET_RKT0_RKT1_RKSt4pairIPKNS1_7keywordESW_ET2_
   fun:_ZN5boost6python6class_ISt6vectorINS_10shared_ptrIN3psi6MatrixEEESaIS6_EENS0_6detail13not_specifiedESA_SA_E8def_implIS8_PFmRS8_ENS9_10def_helperIPKcSA_SA_SA_EEEEvPT_SI_T0_RKT1_z
   fun:_ZNK5boost6python14indexing_suiteISt6vectorINS_10shared_ptrIN3psi6MatrixEEESaIS6_EENS0_6detail29final_vector_derived_policiesIS8_Lb1EEELb1ELb0ES6_mS6_E5visitINS0_6class_IS8_NS9_13not_specifiedESF_SF_EEEEvRT_
   fun:_Z12export_mintsv
   fun:_Z18init_module_PsiModv
   fun:_ZN5boost6python21handle_exception_implENS_9function0IvEE
   fun:_ZN5boost6python16handle_exceptionIPFvvEEEbT_
   fun:_ZN5boost6python6detail11init_moduleEPKcPFvvE
   fun:_PyImport_FixupExtension
}
{
   Boost Python memort leak
   Memcheck:Leak
   fun:malloc
   fun:_Znwm
   fun:_ZN5boost6python7objects15function_objectERKNS1_11py_functionERKSt4pairIPKNS0_6detail7keywordES9_E
   fun:_ZN5boost6python6detail17make_function_auxIPFvRSt6vectorINS_10shared_ptrIN3psi6MatrixEEESaIS7_EEP7_objectSC_ENS0_21default_call_policiesENS_3mpl7vector4IvSA_SC_SC_EEN4mpl_4int_ILi0EEEEENS0_3api6objectET_RKT0_RKT1_RKSt4pairIPKNS1_7keywordESY_ET2_
   fun:_ZN5boost6python6class_ISt6vectorINS_10shared_ptrIN3psi6MatrixEEESaIS6_EENS0_6detail13not_specifiedESA_SA_E8def_implIS8_PFvRS8_P7_objectSF_ENS9_10def_helperIPKcSA_SA_SA_EEEEvPT_SK_T0_RKT1_z
   fun:_ZNK5boost6python14indexing_suiteISt6vectorINS_10shared_ptrIN3psi6MatrixEEESaIS6_EENS0_6detail29final_vector_derived_policiesIS8_Lb1EEELb1ELb0ES6_mS6_E5visitINS0_6class_IS8_NS9_13not_specifiedESF_SF_EEEEvRT_
   fun:_Z12export_mintsv
   fun:_Z18init_module_PsiModv
   fun:_ZN5boost6python21handle_exception_implENS_9function0IvEE
   fun:_ZN5boost6python16handle_exceptionIPFvvEEEbT_
   fun:_ZN5boost6python6detail11init_moduleEPKcPFvvE
   fun:_PyImport_FixupExtension
}
{
   Boost Python memort leak
   Memcheck:Leak
   fun:malloc
   fun:_Znwm
   fun:_ZN5boost6python7objects15function_objectERKNS1_11py_functionERKSt4pairIPKNS0_6detail7keywordES9_E
   fun:_ZN5boost6python6detail17make_function_auxIPFvRSt6vectorINS_10shared_ptrIN3psi6MatrixEEESaIS7_EEP7_objectENS0_21default_call_policiesENS_3mpl7vector3IvSA_SC_EEN4mpl_4int_ILi0EEEEENS0_3api6objectET_RKT0_RKT1_RKSt4pairIPKNS1_7keywordESY_ET2_
   fun:_ZN5boost6python6class_ISt6vectorINS_10shared_ptrIN3psi6MatrixEEESaIS6_EENS0_6detail13not_specifiedESA_SA_E8def_implIS8_PFvRS8_P7_objectENS9_10def_helperIPKcSA_SA_SA_EEEEvPT_SK_T0_RKT1_z
   fun:_ZNK5boost6python14indexing_suiteISt6vectorINS_10shared_ptrIN3psi6MatrixEEESaIS6_EENS0_6detail29final_vector_derived_policiesIS8_Lb1EEELb1ELb0ES6_mS6_E5visitINS0_6class_IS8_NS9_13not_specifiedESF_SF_EEEEvRT_
   fun:_Z12export_mintsv
   fun:_Z18init_module_PsiModv
   fun:_ZN5boost6python21handle_exception_implENS_9function0IvEE
   fun:_ZN5boost6python16handle_exceptionIPFvvEEEbT_
   fun:_ZN5boost6python6detail11init_moduleEPKcPFvvE
   fun:_PyImport_FixupExtension
}
{
   Boost Python memort leak
   Memcheck:Leak
   fun:malloc
   fun:_Znwm
   fun:_ZN5boost6python7objects15function_objectERKNS1_11py_functionERKSt4pairIPKNS0_6detail7keywordES9_E
   fun:_ZN5boost6python6detail17make_function_auxIPFNS0_3api6objectENS0_14back_referenceIRSt6vectorINS_10shared_ptrIN3psi6MatrixEEESaISA_EEEEP7_objectENS0_21default_call_policiesENS_3mpl7vector3IS4_SE_SG_EEN4mpl_4int_ILi0EEEEES4_T_RKT0_RKT1_RKSt4pairIPKNS1_7keywordES10_ET2_
   fun:_ZN5boost6python6class_ISt6vectorINS_10shared_ptrIN3psi6MatrixEEESaIS6_EENS0_6detail13not_specifiedESA_SA_E8def_implIS8_PFNS0_3api6objectENS0_14back_referenceIRS8_EEP7_objectENS9_10def_helperIPKcSA_SA_SA_EEEEvPT_SO_T0_RKT1_z
   fun:_ZNK5boost6python14indexing_suiteISt6vectorINS_10shared_ptrIN3psi6MatrixEEESaIS6_EENS0_6detail29final_vector_derived_policiesIS8_Lb1EEELb1ELb0ES6_mS6_E5visitINS0_6class_IS8_NS9_13not_specifiedESF_SF_EEEEvRT_
   fun:_Z12export_mintsv
   fun:_Z18init_module_PsiModv
   fun:_ZN5boost6python21handle_exception_implENS_9function0IvEE
   fun:_ZN5boost6python16handle_exceptionIPFvvEEEbT_
   fun:_ZN5boost6python6detail11init_moduleEPKcPFvvE
   fun:_PyImport_FixupExtension
}
{
   Boost Python memort leak
   Memcheck:Leak
   fun:malloc
   fun:_Znwm
   fun:_ZN5boost6python7objects15function_objectERKNS1_11py_functionERKSt4pairIPKNS0_6detail7keywordES9_E
   fun:_ZN5boost6python6detail17make_function_auxIPFbRSt6vectorINS_10shared_ptrIN3psi6MatrixEEESaIS7_EEP7_objectENS0_21default_call_policiesENS_3mpl7vector3IbSA_SC_EEN4mpl_4int_ILi0EEEEENS0_3api6objectET_RKT0_RKT1_RKSt4pairIPKNS1_7keywordESY_ET2_
   fun:_ZN5boost6python6class_ISt6vectorINS_10shared_ptrIN3psi6MatrixEEESaIS6_EENS0_6detail13not_specifiedESA_SA_E8def_implIS8_PFbRS8_P7_objectENS9_10def_helperIPKcSA_SA_SA_EEEEvPT_SK_T0_RKT1_z
   fun:_ZNK5boost6python14indexing_suiteISt6vectorINS_10shared_ptrIN3psi6MatrixEEESaIS6_EENS0_6detail29final_vector_derived_policiesIS8_Lb1EEELb1ELb0ES6_mS6_E5visitINS0_6class_IS8_NS9_13not_specifiedESF_SF_EEEEvRT_
   fun:_Z12export_mintsv
   fun:_Z18init_module_PsiModv
   fun:_ZN5boost6python21handle_exception_implENS_9function0IvEE
   fun:_ZN5boost6python16handle_exceptionIPFvvEEEbT_
   fun:_ZN5boost6python6detail11init_moduleEPKcPFvvE
   fun:_PyImport_FixupExtension
}
{
   Boost Python memort leak
   Memcheck:Leak
   fun:malloc
   fun:_Znwm
   fun:_ZN5boost6python7objects15function_objectERKNS1_11py_functionERKSt4pairIPKNS0_6detail7keywordES9_E
   fun:_ZN5boost6python6detail17make_function_auxIPFvRSt6vectorINS_10shared_ptrIN3psi6MatrixEEESaIS7_EENS0_3api6objectEENS0_21default_call_policiesENS_3mpl7vector3IvSA_SC_EEN4mpl_4int_ILi0EEEEESC_T_RKT0_RKT1_RKSt4pairIPKNS1_7keywordESW_ET2_
   fun:_ZN5boost6python6class_ISt6vectorINS_10shared_ptrIN3psi6MatrixEEESaIS6_EENS0_6detail13not_specifiedESA_SA_E8def_implIS8_PFvRS8_NS0_3api6objectEENS9_10def_helperIPKcSA_SA_SA_EEEEvPT_SK_T0_RKT1_z
   fun:_ZNK5boost6python14indexing_suiteISt6vectorINS_10shared_ptrIN3psi6MatrixEEESaIS6_EENS0_6detail29final_vector_derived_policiesIS8_Lb1EEELb1ELb0ES6_mS6_E5visitINS0_6class_IS8_NS9_13not_specifiedESF_SF_EEEEvRT_
   fun:_Z12export_mintsv
   fun:_Z18init_module_PsiModv
   fun:_ZN5boost6python21handle_exception_implENS_9function0IvEE
   fun:_ZN5boost6python16handle_exceptionIPFvvEEEbT_
   fun:_ZN5boost6python6detail11init_moduleEPKcPFvvE
   fun:_PyImport_FixupExtension
}
{
   Boost Python memort leak
   Memcheck:Leak
   fun:malloc
   fun:_Znwm
   fun:_ZN5boost6python7objects15function_objectERKNS1_11py_functionERKSt4pairIPKNS0_6detail7keywordES9_E
   fun:_ZN5boost6python6detail17make_function_auxIPFvRSt6vectorINS_10shared_ptrIN3psi6MatrixEEESaIS7_EENS0_3api6objectEENS0_21default_call_policiesENS_3mpl7vector3IvSA_SC_EEN4mpl_4int_ILi0EEEEESC_T_RKT0_RKT1_RKSt4pairIPKNS1_7keywordESW_ET2_
   fun:_ZN5boost6python6class_ISt6vectorINS_10shared_ptrIN3psi6MatrixEEESaIS6_EENS0_6detail13not_specifiedESA_SA_E8def_implIS8_PFvRS8_NS0_3api6objectEENS9_10def_helperIPKcSA_SA_SA_EEEEvPT_SK_T0_RKT1_z
   fun:_ZNK5boost6python14indexing_suiteISt6vectorINS_10shared_ptrIN3psi6MatrixEEESaIS6_EENS0_6detail29final_vector_derived_policiesIS8_Lb1EEELb1ELb0ES6_mS6_E5visitINS0_6class_IS8_NS9_13not_specifiedESF_SF_EEEEvRT_
   fun:_Z12export_mintsv
   fun:_Z18init_module_PsiModv
   fun:_ZN5boost6python21handle_exception_implENS_9function0IvEE
   fun:_ZN5boost6python16handle_exceptionIPFvvEEEbT_
   fun:_ZN5boost6python6detail11init_moduleEPKcPFvvE
   fun:_PyImport_FixupExtension
}
{
   Boost Python memort leak
   Memcheck:Leak
   fun:malloc
   fun:_Znwm
   fun:_ZN5boost6python7objects15function_objectERKNS1_11py_functionERKSt4pairIPKNS0_6detail7keywordES9_E
   fun:_ZN5boost6python6detail17make_function_auxIPFvP7_objectENS0_21default_call_policiesENS_3mpl7vector2IvS4_EEN4mpl_4int_ILi0EEEEENS0_3api6objectET_RKT0_RKT1_RKSt4pairIPKNS1_7keywordESQ_ET2_
   fun:_ZN5boost6python6detail12def_init_auxINS0_6class_IN3psi6VectorENS_10shared_ptrIS5_EENS1_13not_specifiedES8_EENS0_21default_call_policiesENS_3mpl7vector0IN4mpl_2naEEENSB_4sizeISF_EEEEvRT_RKT1_T2_RKT0_PKcRKSt4pairIPKNS1_7keywordESW_E
   fun:_ZN5boost6python6class_IN3psi6VectorENS_10shared_ptrIS3_EENS0_6detail13not_specifiedES7_EC2EPKcSA_
   fun:_Z12export_mintsv
   fun:_Z18init_module_PsiModv
   fun:_ZN5boost6python21handle_exception_implENS_9function0IvEE
   fun:_ZN5boost6python16handle_exceptionIPFvvEEEbT_
   fun:_ZN5boost6python6detail11init_moduleEPKcPFvvE
   fun:_PyImport_FixupExtension
}
{
   Boost Python memort leak
   Memcheck:Leak
   fun:malloc
   fun:_Znwm
   fun:_ZN5boost6python7objects15function_objectERKNS1_11py_functionERKSt4pairIPKNS0_6detail7keywordES9_E
   fun:_ZN5boost6python6detail17make_function_auxIPFvP7_objectiENS0_21default_call_policiesENS_3mpl7vector3IvS4_iEEN4mpl_4int_ILi0EEEEENS0_3api6objectET_RKT0_RKT1_RKSt4pairIPKNS1_7keywordESQ_ET2_
   fun:_ZN5boost6python6detail12def_init_auxINS0_6class_IN3psi6VectorENS_10shared_ptrIS5_EENS1_13not_specifiedES8_EENS0_21default_call_policiesENS_3mpl7vector1IiEENSB_4sizeISD_EEEEvRT_RKT1_T2_RKT0_PKcRKSt4pairIPKNS1_7keywordESU_E
   fun:_Z12export_mintsv
   fun:_Z18init_module_PsiModv
   fun:_ZN5boost6python21handle_exception_implENS_9function0IvEE
   fun:_ZN5boost6python16handle_exceptionIPFvvEEEbT_
   fun:_ZN5boost6python6detail11init_moduleEPKcPFvvE
   fun:_PyImport_FixupExtension
   fun:_PyImport_FixupExtension
}
{
   Boost Python memort leak
   Memcheck:Leak
   fun:malloc
   fun:_Znwm
   fun:_ZN5boost6python7objects15function_objectERKNS1_11py_functionERKSt4pairIPKNS0_6detail7keywordES9_E
   fun:_ZN5boost6python6detail17make_function_auxIMN3psi6VectorEFdiENS0_21default_call_policiesENS_3mpl7vector3IdRS4_iEEN4mpl_4int_ILi0EEEEENS0_3api6objectET_RKT0_RKT1_RKSt4pairIPKNS1_7keywordESR_ET2_
   fun:_ZN5boost6python6class_IN3psi6VectorENS_10shared_ptrIS3_EENS0_6detail13not_specifiedES7_E8def_implIS3_MS3_FdiENS6_10def_helperIPKcS7_S7_S7_EEEEvPT_SE_T0_RKT1_z
   fun:_Z12export_mintsv
   fun:_Z18init_module_PsiModv
   fun:_ZN5boost6python21handle_exception_implENS_9function0IvEE
   fun:_ZN5boost6python16handle_exceptionIPFvvEEEbT_
   fun:_ZN5boost6python6detail11init_moduleEPKcPFvvE
   fun:_PyImport_FixupExtension
   fun:_PyImport_FixupExtension
}
{
   Boost Python memort leak
   Memcheck:Leak
   fun:malloc
   fun:_Znwm
   fun:_ZN5boost6python7objects15function_objectERKNS1_11py_functionERKSt4pairIPKNS0_6detail7keywordES9_E
   fun:_ZN5boost6python6detail17make_function_auxIMN3psi6VectorEFdiiENS0_21default_call_policiesENS_3mpl7vector4IdRS4_iiEEN4mpl_4int_ILi0EEEEENS0_3api6objectET_RKT0_RKT1_RKSt4pairIPKNS1_7keywordESR_ET2_
   fun:_ZN5boost6python6class_IN3psi6VectorENS_10shared_ptrIS3_EENS0_6detail13not_specifiedES7_E8def_implIS3_MS3_FdiiENS6_10def_helperIPKcS7_S7_S7_EEEEvPT_SE_T0_RKT1_z
   fun:_Z12export_mintsv
   fun:_Z18init_module_PsiModv
   fun:_ZN5boost6python21handle_exception_implENS_9function0IvEE
   fun:_ZN5boost6python16handle_exceptionIPFvvEEEbT_
   fun:_ZN5boost6python6detail11init_moduleEPKcPFvvE
   fun:_PyImport_FixupExtension
   fun:_PyImport_FixupExtension
}
{
   Boost Python memort leak
   Memcheck:Leak
   fun:malloc
   fun:_Znwm
   fun:_ZN5boost6python7objects15function_objectERKNS1_11py_functionERKSt4pairIPKNS0_6detail7keywordES9_E
   fun:_ZN5boost6python6detail17make_function_auxIMN3psi6VectorEFvidENS0_21default_call_policiesENS_3mpl7vector4IvRS4_idEEN4mpl_4int_ILi0EEEEENS0_3api6objectET_RKT0_RKT1_RKSt4pairIPKNS1_7keywordESR_ET2_
   fun:_ZN5boost6python6class_IN3psi6VectorENS_10shared_ptrIS3_EENS0_6detail13not_specifiedES7_E8def_implIS3_MS3_FvidENS6_10def_helperIPKcS7_S7_S7_EEEEvPT_SE_T0_RKT1_z
   fun:_Z12export_mintsv
   fun:_Z18init_module_PsiModv
   fun:_ZN5boost6python21handle_exception_implENS_9function0IvEE
   fun:_ZN5boost6python16handle_exceptionIPFvvEEEbT_
   fun:_ZN5boost6python6detail11init_moduleEPKcPFvvE
   fun:_PyImport_FixupExtension
   fun:_PyImport_FixupExtension
}
{
   Boost Python memort leak
   Memcheck:Leak
   fun:malloc
   fun:_Znwm
   fun:_ZN5boost6python7objects15function_objectERKNS1_11py_functionERKSt4pairIPKNS0_6detail7keywordES9_E
   fun:_ZN5boost6python6detail17make_function_auxIMN3psi6VectorEFviidENS0_21default_call_policiesENS_3mpl7vector5IvRS4_iidEEN4mpl_4int_ILi0EEEEENS0_3api6objectET_RKT0_RKT1_RKSt4pairIPKNS1_7keywordESR_ET2_
   fun:_ZN5boost6python6class_IN3psi6VectorENS_10shared_ptrIS3_EENS0_6detail13not_specifiedES7_E8def_implIS3_MS3_FviidENS6_10def_helperIPKcS7_S7_S7_EEEEvPT_SE_T0_RKT1_z
   fun:_Z12export_mintsv
   fun:_Z18init_module_PsiModv
   fun:_ZN5boost6python21handle_exception_implENS_9function0IvEE
   fun:_ZN5boost6python16handle_exceptionIPFvvEEEbT_
   fun:_ZN5boost6python6detail11init_moduleEPKcPFvvE
   fun:_PyImport_FixupExtension
   fun:_PyImport_FixupExtension
}
{
   Boost Python memort leak
   Memcheck:Leak
   fun:malloc
   fun:_Znwm
   fun:_ZN5boost6python7objects15function_objectERKNS1_11py_functionERKSt4pairIPKNS0_6detail7keywordES9_E
   fun:_ZN5boost6python6detail17make_function_auxIMN3psi6VectorEFvvENS0_21default_call_policiesENS_3mpl7vector2IvRS4_EEN4mpl_4int_ILi0EEEEENS0_3api6objectET_RKT0_RKT1_RKSt4pairIPKNS1_7keywordESR_ET2_
   fun:_ZN5boost6python6class_IN3psi6VectorENS_10shared_ptrIS3_EENS0_6detail13not_specifiedES7_E8def_implIS3_MS3_FvvENS6_10def_helperIPKcS7_S7_S7_EEEEvPT_SE_T0_RKT1_z
   fun:_Z12export_mintsv
   fun:_Z18init_module_PsiModv
   fun:_ZN5boost6python21handle_exception_implENS_9function0IvEE
   fun:_ZN5boost6python16handle_exceptionIPFvvEEEbT_
   fun:_ZN5boost6python6detail11init_moduleEPKcPFvvE
   fun:_PyImport_FixupExtension
   fun:_PyImport_FixupExtension
}
{
   Boost Python memort leak
   Memcheck:Leak
   fun:malloc
   fun:_Znwm
   fun:_ZN5boost6python7objects15function_objectERKNS1_11py_functionERKSt4pairIPKNS0_6detail7keywordES9_E
   fun:_ZN5boost6python6detail17make_function_auxIMN3psi6VectorEKFiiENS0_21default_call_policiesENS_3mpl7vector3IiRS4_iEEN4mpl_4int_ILi0EEEEENS0_3api6objectET_RKT0_RKT1_RKSt4pairIPKNS1_7keywordESR_ET2_
   fun:_ZN5boost6python6class_IN3psi6VectorENS_10shared_ptrIS3_EENS0_6detail13not_specifiedES7_E8def_implIS3_MS3_KFiiENS6_10def_helperIPKcS7_S7_S7_EEEEvPT_SE_T0_RKT1_z
   fun:_Z12export_mintsv
   fun:_Z18init_module_PsiModv
   fun:_ZN5boost6python21handle_exception_implENS_9function0IvEE
   fun:_ZN5boost6python16handle_exceptionIPFvvEEEbT_
   fun:_ZN5boost6python6detail11init_moduleEPKcPFvvE
   fun:_PyImport_FixupExtension
   fun:_PyImport_FixupExtension
}
{
   Boost Python memort leak
   Memcheck:Leak
   fun:malloc
   fun:_Znwm
   fun:_ZN5boost6python7objects15function_objectERKNS1_11py_functionERKSt4pairIPKNS0_6detail7keywordES9_E
   fun:_ZN5boost6python6detail17make_function_auxIMN3psi6VectorEFdiENS0_21default_call_policiesENS_3mpl7vector3IdRS4_iEEN4mpl_4int_ILi0EEEEENS0_3api6objectET_RKT0_RKT1_RKSt4pairIPKNS1_7keywordESR_ET2_
   fun:_ZN5boost6python6class_IN3psi6VectorENS_10shared_ptrIS3_EENS0_6detail13not_specifiedES7_E8def_implIS3_MS3_FdiENS6_10def_helperIPKcS7_S7_S7_EEEEvPT_SE_T0_RKT1_z
   fun:_Z12export_mintsv
   fun:_Z18init_module_PsiModv
   fun:_ZN5boost6python21handle_exception_implENS_9function0IvEE
   fun:_ZN5boost6python16handle_exceptionIPFvvEEEbT_
   fun:_ZN5boost6python6detail11init_moduleEPKcPFvvE
   fun:_PyImport_FixupExtension
   fun:_PyImport_FixupExtension
}
{
   Boost Python memort leak
   Memcheck:Leak
   fun:malloc
   fun:_Znwm
   fun:_ZN5boost6python7objects15function_objectERKNS1_11py_functionERKSt4pairIPKNS0_6detail7keywordES9_E
   fun:_ZN5boost6python6detail17make_function_auxIMN3psi6VectorEFvidENS0_21default_call_policiesENS_3mpl7vector4IvRS4_idEEN4mpl_4int_ILi0EEEEENS0_3api6objectET_RKT0_RKT1_RKSt4pairIPKNS1_7keywordESR_ET2_
   fun:_ZN5boost6python6class_IN3psi6VectorENS_10shared_ptrIS3_EENS0_6detail13not_specifiedES7_E8def_implIS3_MS3_FvidENS6_10def_helperIPKcS7_S7_S7_EEEEvPT_SE_T0_RKT1_z
   fun:_Z12export_mintsv
   fun:_Z18init_module_PsiModv
   fun:_ZN5boost6python21handle_exception_implENS_9function0IvEE
   fun:_ZN5boost6python16handle_exceptionIPFvvEEEbT_
   fun:_ZN5boost6python6detail11init_moduleEPKcPFvvE
   fun:_PyImport_FixupExtension
   fun:_PyImport_FixupExtension
}
{
   Boost Python memort leak
   Memcheck:Leak
   fun:malloc
   fun:_Znwm
   fun:_ZN5boost6python7objects15function_objectERKNS1_11py_functionERKSt4pairIPKNS0_6detail7keywordES9_E
   fun:_ZN5boost6python6detail17make_function_auxIMN3psi6VectorEFdRKNS0_5tupleEENS0_21default_call_policiesENS_3mpl7vector3IdRS4_S7_EEN4mpl_4int_ILi0EEEEENS0_3api6objectET_RKT0_RKT1_RKSt4pairIPKNS1_7keywordESU_ET2_
   fun:_ZN5boost6python6class_IN3psi6VectorENS_10shared_ptrIS3_EENS0_6detail13not_specifiedES7_E8def_implIS3_MS3_FdRKNS0_5tupleEENS6_10def_helperIPKcS7_S7_S7_EEEEvPT_SH_T0_RKT1_z
   fun:_Z12export_mintsv
   fun:_Z18init_module_PsiModv
   fun:_ZN5boost6python21handle_exception_implENS_9function0IvEE
   fun:_ZN5boost6python16handle_exceptionIPFvvEEEbT_
   fun:_ZN5boost6python6detail11init_moduleEPKcPFvvE
   fun:_PyImport_FixupExtension
   fun:_PyImport_FixupExtension
}
{
   Boost Python memort leak
   Memcheck:Leak
   fun:malloc
   fun:_Znwm
   fun:_ZN5boost6python7objects15function_objectERKNS1_11py_functionERKSt4pairIPKNS0_6detail7keywordES9_E
   fun:_ZN5boost6python6detail17make_function_auxIMN3psi6VectorEFvRKNS0_5tupleEdENS0_21default_call_policiesENS_3mpl7vector4IvRS4_S7_dEEN4mpl_4int_ILi0EEEEENS0_3api6objectET_RKT0_RKT1_RKSt4pairIPKNS1_7keywordESU_ET2_
   fun:_ZN5boost6python6class_IN3psi6VectorENS_10shared_ptrIS3_EENS0_6detail13not_specifiedES7_E8def_implIS3_MS3_FvRKNS0_5tupleEdENS6_10def_helperIPKcS7_S7_S7_EEEEvPT_SH_T0_RKT1_z
   fun:_Z12export_mintsv
   fun:_Z18init_module_PsiModv
   fun:_ZN5boost6python21handle_exception_implENS_9function0IvEE
   fun:_ZN5boost6python16handle_exceptionIPFvvEEEbT_
   fun:_ZN5boost6python6detail11init_moduleEPKcPFvvE
   fun:_PyImport_FixupExtension
   fun:_PyImport_FixupExtension
}
{
   Boost Python memort leak
   Memcheck:Leak
   fun:malloc
   fun:_Znwm
   fun:_ZN5boost6python7objects15function_objectERKNS1_11py_functionERKSt4pairIPKNS0_6detail7keywordES9_E
   fun:_ZN5boost6python6detail17make_function_auxIMN3psi6VectorEKFivENS0_21default_call_policiesENS_3mpl7vector2IiRS4_EEN4mpl_4int_ILi0EEEEENS0_3api6objectET_RKT0_RKT1_RKSt4pairIPKNS1_7keywordESR_ET2_
   fun:_ZN5boost6python6class_IN3psi6VectorENS_10shared_ptrIS3_EENS0_6detail13not_specifiedES7_E8def_implIS3_MS3_KFivENS6_10def_helperIPKcS7_S7_S7_EEEEvPT_SE_T0_RKT1_z
   fun:_Z12export_mintsv
   fun:_Z18init_module_PsiModv
   fun:_ZN5boost6python21handle_exception_implENS_9function0IvEE
   fun:_ZN5boost6python16handle_exceptionIPFvvEEEbT_
   fun:_ZN5boost6python6detail11init_moduleEPKcPFvvE
   fun:_PyImport_FixupExtension
   fun:_PyImport_FixupExtension
}
{
   Boost Python memort leak
   Memcheck:Leak
   fun:malloc
   fun:_Znwm
   fun:_ZN5boost6python7objects15function_objectERKNS1_11py_functionERKSt4pairIPKNS0_6detail7keywordES9_E
   fun:_ZN5boost6python6detail17make_function_auxIPFvP7_objectENS0_21default_call_policiesENS_3mpl7vector2IvS4_EEN4mpl_4int_ILi0EEEEENS0_3api6objectET_RKT0_RKT1_RKSt4pairIPKNS1_7keywordESQ_ET2_
   fun:_ZN5boost6python6detail12def_init_auxINS0_6class_IN3psi9IntVectorENS_10shared_ptrIS5_EENS1_13not_specifiedES8_EENS0_21default_call_policiesENS_3mpl7vector0IN4mpl_2naEEENSB_4sizeISF_EEEEvRT_RKT1_T2_RKT0_PKcRKSt4pairIPKNS1_7keywordESW_E
   fun:_ZN5boost6python6class_IN3psi9IntVectorENS_10shared_ptrIS3_EENS0_6detail13not_specifiedES7_EC2EPKcSA_
   fun:_Z12export_mintsv
   fun:_Z18init_module_PsiModv
   fun:_ZN5boost6python21handle_exception_implENS_9function0IvEE
   fun:_ZN5boost6python16handle_exceptionIPFvvEEEbT_
   fun:_ZN5boost6python6detail11init_moduleEPKcPFvvE
   fun:_PyImport_FixupExtension
}
{
   Boost Python memort leak
   Memcheck:Leak
   fun:malloc
   fun:_Znwm
   fun:_ZN5boost6python7objects15function_objectERKNS1_11py_functionERKSt4pairIPKNS0_6detail7keywordES9_E
   fun:_ZN5boost6python6detail17make_function_auxIPFvP7_objectiENS0_21default_call_policiesENS_3mpl7vector3IvS4_iEEN4mpl_4int_ILi0EEEEENS0_3api6objectET_RKT0_RKT1_RKSt4pairIPKNS1_7keywordESQ_ET2_
   fun:_ZN5boost6python6detail12def_init_auxINS0_6class_IN3psi9IntVectorENS_10shared_ptrIS5_EENS1_13not_specifiedES8_EENS0_21default_call_policiesENS_3mpl7vector1IiEENSB_4sizeISD_EEEEvRT_RKT1_T2_RKT0_PKcRKSt4pairIPKNS1_7keywordESU_E
   fun:_Z12export_mintsv
   fun:_Z18init_module_PsiModv
   fun:_ZN5boost6python21handle_exception_implENS_9function0IvEE
   fun:_ZN5boost6python16handle_exceptionIPFvvEEEbT_
   fun:_ZN5boost6python6detail11init_moduleEPKcPFvvE
   fun:_PyImport_FixupExtension
   fun:_PyImport_FixupExtension
}
{
   Boost Python memort leak
   Memcheck:Leak
   fun:malloc
   fun:_Znwm
   fun:_ZN5boost6python7objects15function_objectERKNS1_11py_functionERKSt4pairIPKNS0_6detail7keywordES9_E
   fun:_ZN5boost6python6detail17make_function_auxIMN3psi9IntVectorEFiiiENS0_21default_call_policiesENS_3mpl7vector4IiRS4_iiEEN4mpl_4int_ILi0EEEEENS0_3api6objectET_RKT0_RKT1_RKSt4pairIPKNS1_7keywordESR_ET2_
   fun:_ZN5boost6python6class_IN3psi9IntVectorENS_10shared_ptrIS3_EENS0_6detail13not_specifiedES7_E8def_implIS3_MS3_FiiiENS6_10def_helperIPKcS7_S7_S7_EEEEvPT_SE_T0_RKT1_z
   fun:_Z12export_mintsv
   fun:_Z18init_module_PsiModv
   fun:_ZN5boost6python21handle_exception_implENS_9function0IvEE
   fun:_ZN5boost6python16handle_exceptionIPFvvEEEbT_
   fun:_ZN5boost6python6detail11init_moduleEPKcPFvvE
   fun:_PyImport_FixupExtension
   fun:_PyImport_FixupExtension
}
{
   Boost Python memort leak
   Memcheck:Leak
   fun:malloc
   fun:_Znwm
   fun:_ZN5boost6python7objects15function_objectERKNS1_11py_functionERKSt4pairIPKNS0_6detail7keywordES9_E
   fun:_ZN5boost6python6detail17make_function_auxIMN3psi9IntVectorEFviiiENS0_21default_call_policiesENS_3mpl7vector5IvRS4_iiiEEN4mpl_4int_ILi0EEEEENS0_3api6objectET_RKT0_RKT1_RKSt4pairIPKNS1_7keywordESR_ET2_
   fun:_ZN5boost6python6class_IN3psi9IntVectorENS_10shared_ptrIS3_EENS0_6detail13not_specifiedES7_E8def_implIS3_MS3_FviiiENS6_10def_helperIPKcS7_S7_S7_EEEEvPT_SE_T0_RKT1_z
   fun:_Z12export_mintsv
   fun:_Z18init_module_PsiModv
   fun:_ZN5boost6python21handle_exception_implENS_9function0IvEE
   fun:_ZN5boost6python16handle_exceptionIPFvvEEEbT_
   fun:_ZN5boost6python6detail11init_moduleEPKcPFvvE
   fun:_PyImport_FixupExtension
   fun:_PyImport_FixupExtension
}
{
   Boost Python memort leak
   Memcheck:Leak
   fun:malloc
   fun:_Znwm
   fun:_ZN5boost6python7objects15function_objectERKNS1_11py_functionERKSt4pairIPKNS0_6detail7keywordES9_E
   fun:_ZN5boost6python6detail17make_function_auxIMN3psi9IntVectorEFvvENS0_21default_call_policiesENS_3mpl7vector2IvRS4_EEN4mpl_4int_ILi0EEEEENS0_3api6objectET_RKT0_RKT1_RKSt4pairIPKNS1_7keywordESR_ET2_
   fun:_ZN5boost6python6class_IN3psi9IntVectorENS_10shared_ptrIS3_EENS0_6detail13not_specifiedES7_E8def_implIS3_MS3_FvvENS6_10def_helperIPKcS7_S7_S7_EEEEvPT_SE_T0_RKT1_z
   fun:_Z12export_mintsv
   fun:_Z18init_module_PsiModv
   fun:_ZN5boost6python21handle_exception_implENS_9function0IvEE
   fun:_ZN5boost6python16handle_exceptionIPFvvEEEbT_
   fun:_ZN5boost6python6detail11init_moduleEPKcPFvvE
   fun:_PyImport_FixupExtension
   fun:_PyImport_FixupExtension
}
{
   Boost Python memort leak
   Memcheck:Leak
   fun:malloc
   fun:_Znwm
   fun:_ZN5boost6python7objects15function_objectERKNS1_11py_functionERKSt4pairIPKNS0_6detail7keywordES9_E
   fun:_ZN5boost6python6detail17make_function_auxIMN3psi9IntVectorEKFiiENS0_21default_call_policiesENS_3mpl7vector3IiRS4_iEEN4mpl_4int_ILi0EEEEENS0_3api6objectET_RKT0_RKT1_RKSt4pairIPKNS1_7keywordESR_ET2_
   fun:_ZN5boost6python6class_IN3psi9IntVectorENS_10shared_ptrIS3_EENS0_6detail13not_specifiedES7_E8def_implIS3_MS3_KFiiENS6_10def_helperIPKcS7_S7_S7_EEEEvPT_SE_T0_RKT1_z
   fun:_Z12export_mintsv
   fun:_Z18init_module_PsiModv
   fun:_ZN5boost6python21handle_exception_implENS_9function0IvEE
   fun:_ZN5boost6python16handle_exceptionIPFvvEEEbT_
   fun:_ZN5boost6python6detail11init_moduleEPKcPFvvE
   fun:_PyImport_FixupExtension
   fun:_PyImport_FixupExtension
}
{
   Boost Python memort leak
   Memcheck:Leak
   fun:malloc
   fun:_Znwm
   fun:_ZN5boost6python7objects15function_objectERKNS1_11py_functionERKSt4pairIPKNS0_6detail7keywordES9_E
   fun:_ZN5boost6python6detail17make_function_auxIMN3psi9IntVectorEKFivENS0_21default_call_policiesENS_3mpl7vector2IiRS4_EEN4mpl_4int_ILi0EEEEENS0_3api6objectET_RKT0_RKT1_RKSt4pairIPKNS1_7keywordESR_ET2_
   fun:_ZN5boost6python6class_IN3psi9IntVectorENS_10shared_ptrIS3_EENS0_6detail13not_specifiedES7_E8def_implIS3_MS3_KFivENS6_10def_helperIPKcS7_S7_S7_EEEEvPT_SE_T0_RKT1_z
   fun:_Z12export_mintsv
   fun:_Z18init_module_PsiModv
   fun:_ZN5boost6python21handle_exception_implENS_9function0IvEE
   fun:_ZN5boost6python16handle_exceptionIPFvvEEEbT_
   fun:_ZN5boost6python6detail11init_moduleEPKcPFvvE
   fun:_PyImport_FixupExtension
   fun:_PyImport_FixupExtension
}
{
   Boost Python memort leak
   Memcheck:Leak
   fun:malloc
   fun:_Znwm
   fun:_ZN5boost6python7objects15function_objectERKNS1_11py_functionERKSt4pairIPKNS0_6detail7keywordES9_E
   fun:_ZN5boost6python6detail17make_function_auxIPFvP7_objectENS0_21default_call_policiesENS_3mpl7vector2IvS4_EEN4mpl_4int_ILi0EEEEENS0_3api6objectET_RKT0_RKT1_RKSt4pairIPKNS1_7keywordESQ_ET2_
   fun:_ZN5boost6python6detail12def_init_auxINS0_6class_IN3psi6MatrixENS_10shared_ptrIS5_EENS1_13not_specifiedES8_EENS0_21default_call_policiesENS_3mpl7vector0IN4mpl_2naEEENSB_4sizeISF_EEEEvRT_RKT1_T2_RKT0_PKcRKSt4pairIPKNS1_7keywordESW_E
   fun:_ZN5boost6python6class_IN3psi6MatrixENS_10shared_ptrIS3_EENS0_6detail13not_specifiedES7_EC2EPKcSA_
   fun:_Z12export_mintsv
   fun:_Z18init_module_PsiModv
   fun:_ZN5boost6python21handle_exception_implENS_9function0IvEE
   fun:_ZN5boost6python16handle_exceptionIPFvvEEEbT_
   fun:_ZN5boost6python6detail11init_moduleEPKcPFvvE
   fun:_PyImport_FixupExtension
}
{
   Boost Python memort leak
   Memcheck:Leak
   fun:malloc
   fun:_Znwm
   fun:_ZN5boost6python7objects15function_objectERKNS1_11py_functionERKSt4pairIPKNS0_6detail7keywordES9_E
   fun:_ZN5boost6python6detail17make_function_auxIPFvP7_objectiiENS0_21default_call_policiesENS_3mpl7vector4IvS4_iiEEN4mpl_4int_ILi0EEEEENS0_3api6objectET_RKT0_RKT1_RKSt4pairIPKNS1_7keywordESQ_ET2_
   fun:_ZN5boost6python6detail12def_init_auxINS0_6class_IN3psi6MatrixENS_10shared_ptrIS5_EENS1_13not_specifiedES8_EENS0_21default_call_policiesENS_3mpl7vector2IiiEENSB_4sizeISD_EEEEvRT_RKT1_T2_RKT0_PKcRKSt4pairIPKNS1_7keywordESU_E
   fun:_Z12export_mintsv
   fun:_Z18init_module_PsiModv
   fun:_ZN5boost6python21handle_exception_implENS_9function0IvEE
   fun:_ZN5boost6python16handle_exceptionIPFvvEEEbT_
   fun:_ZN5boost6python6detail11init_moduleEPKcPFvvE
   fun:_PyImport_FixupExtension
   fun:_PyImport_FixupExtension
}
{
   Boost Python memort leak
   Memcheck:Leak
   fun:malloc
   fun:_Znwm
   fun:_ZN5boost6python7objects15function_objectERKNS1_11py_functionERKSt4pairIPKNS0_6detail7keywordES9_E
   fun:_ZN5boost6python6detail17make_function_auxIMN3psi6MatrixEFvRKSsENS0_21default_call_policiesENS_3mpl7vector3IvRS4_S6_EEN4mpl_4int_ILi0EEEEENS0_3api6objectET_RKT0_RKT1_RKSt4pairIPKNS1_7keywordEST_ET2_
   fun:_ZN5boost6python6class_IN3psi6MatrixENS_10shared_ptrIS3_EENS0_6detail13not_specifiedES7_E8def_implIS3_MS3_FvRKSsENS6_10def_helperIPKcS7_S7_S7_EEEEvPT_SG_T0_RKT1_z
   fun:_Z12export_mintsv
   fun:_Z18init_module_PsiModv
   fun:_ZN5boost6python21handle_exception_implENS_9function0IvEE
   fun:_ZN5boost6python16handle_exceptionIPFvvEEEbT_
   fun:_ZN5boost6python6detail11init_moduleEPKcPFvvE
   fun:_PyImport_FixupExtension
   fun:_PyImport_FixupExtension
}
{
   Boost Python memort leak
   Memcheck:Leak
   fun:malloc
   fun:_Znwm
   fun:_ZN5boost6python7objects15function_objectERKNS1_11py_functionERKSt4pairIPKNS0_6detail7keywordES9_E
   fun:_ZN5boost6python6detail17make_function_auxIMN3psi6MatrixEKFRKSsvENS0_19return_value_policyINS0_20copy_const_referenceENS0_21default_call_policiesEEENS_3mpl7vector2IS6_RS4_EEN4mpl_4int_ILi0EEEEENS0_3api6objectET_RKT0_RKT1_RKSt4pairIPKNS1_7keywordESW_ET2_
   fun:_ZN5boost6python6class_IN3psi6MatrixENS_10shared_ptrIS3_EENS0_6detail13not_specifiedES7_E8def_implIS3_MS3_KFRKSsvENS6_10def_helperINS0_19return_value_policyINS0_20copy_const_referenceENS0_21default_call_policiesEEES7_S7_S7_EEEEvPT_PKcT0_RKT1_z
   fun:_ZN5boost6python6class_IN3psi6MatrixENS_10shared_ptrIS3_EENS0_6detail13not_specifiedES7_E19def_maybe_overloadsIMS3_KFRKSsvENS0_19return_value_policyINS0_20copy_const_referenceENS0_21default_call_policiesEEEEEvPKcT_RKT0_z
   fun:_Z12export_mintsv
   fun:_Z18init_module_PsiModv
   fun:_ZN5boost6python21handle_exception_implENS_9function0IvEE
   fun:_ZN5boost6python16handle_exceptionIPFvvEEEbT_
   fun:_ZN5boost6python6detail11init_moduleEPKcPFvvE
   fun:_PyImport_FixupExtension
}
{
   Boost Python memort leak
   Memcheck:Leak
   fun:malloc
   fun:_Znwm
   fun:_ZN5boost6python7objects15function_objectERKNS1_11py_functionERKSt4pairIPKNS0_6detail7keywordES9_E
   fun:_ZN5boost6python6detail17make_function_auxIMN3psi6MatrixEKFvvENS0_21default_call_policiesENS_3mpl7vector2IvRS4_EEN4mpl_4int_ILi0EEEEENS0_3api6objectET_RKT0_RKT1_RKSt4pairIPKNS1_7keywordESR_ET2_
   fun:_ZN5boost6python6class_IN3psi6MatrixENS_10shared_ptrIS3_EENS0_6detail13not_specifiedES7_E8def_implIS3_MS3_KFvvENS6_10def_helperIPKcS7_S7_S7_EEEEvPT_SE_T0_RKT1_z
   fun:_Z12export_mintsv
   fun:_Z18init_module_PsiModv
   fun:_ZN5boost6python21handle_exception_implENS_9function0IvEE
   fun:_ZN5boost6python16handle_exceptionIPFvvEEEbT_
   fun:_ZN5boost6python6detail11init_moduleEPKcPFvvE
   fun:_PyImport_FixupExtension
   fun:_PyImport_FixupExtension
}
{
   Boost Python memort leak
   Memcheck:Leak
   fun:malloc
   fun:_Znwm
   fun:_ZN5boost6python7objects15function_objectERKNS1_11py_functionERKSt4pairIPKNS0_6detail7keywordES9_E
   fun:_ZN5boost6python6detail17make_function_auxIMN3psi6MatrixEKFiRKiENS0_21default_call_policiesENS_3mpl7vector3IiRS4_S6_EEN4mpl_4int_ILi0EEEEENS0_3api6objectET_RKT0_RKT1_RKSt4pairIPKNS1_7keywordEST_ET2_
   fun:_ZN5boost6python6class_IN3psi6MatrixENS_10shared_ptrIS3_EENS0_6detail13not_specifiedES7_E8def_implIS3_MS3_KFiRKiENS6_10def_helperIPKcS7_S7_S7_EEEEvPT_SG_T0_RKT1_z
   fun:_Z12export_mintsv
   fun:_Z18init_module_PsiModv
   fun:_ZN5boost6python21handle_exception_implENS_9function0IvEE
   fun:_ZN5boost6python16handle_exceptionIPFvvEEEbT_
   fun:_ZN5boost6python6detail11init_moduleEPKcPFvvE
   fun:_PyImport_FixupExtension
   fun:_PyImport_FixupExtension
}
{
   Boost Python memort leak
   Memcheck:Leak
   fun:malloc
   fun:_Znwm
   fun:_ZN5boost6python7objects15function_objectERKNS1_11py_functionERKSt4pairIPKNS0_6detail7keywordES9_E
   fun:_ZN5boost6python6detail17make_function_auxIMN3psi6MatrixEKFiRKiENS0_21default_call_policiesENS_3mpl7vector3IiRS4_S6_EEN4mpl_4int_ILi0EEEEENS0_3api6objectET_RKT0_RKT1_RKSt4pairIPKNS1_7keywordEST_ET2_
   fun:_ZN5boost6python6class_IN3psi6MatrixENS_10shared_ptrIS3_EENS0_6detail13not_specifiedES7_E8def_implIS3_MS3_KFiRKiENS6_10def_helperIPKcS7_S7_S7_EEEEvPT_SG_T0_RKT1_z
   fun:_Z12export_mintsv
   fun:_Z18init_module_PsiModv
   fun:_ZN5boost6python21handle_exception_implENS_9function0IvEE
   fun:_ZN5boost6python16handle_exceptionIPFvvEEEbT_
   fun:_ZN5boost6python6detail11init_moduleEPKcPFvvE
   fun:_PyImport_FixupExtension
   fun:_PyImport_FixupExtension
}
{
   Boost Python memort leak
   Memcheck:Leak
   fun:malloc
   fun:_Znwm
   fun:_ZN5boost6python7objects15function_objectERKNS1_11py_functionERKSt4pairIPKNS0_6detail7keywordES9_E
   fun:_ZN5boost6python6detail17make_function_auxIMN3psi6MatrixEKFRKivENS0_19return_value_policyINS0_20copy_const_referenceENS0_21default_call_policiesEEENS_3mpl7vector2IS6_RS4_EEN4mpl_4int_ILi0EEEEENS0_3api6objectET_RKT0_RKT1_RKSt4pairIPKNS1_7keywordESW_ET2_
   fun:_ZN5boost6python6class_IN3psi6MatrixENS_10shared_ptrIS3_EENS0_6detail13not_specifiedES7_E8def_implIS3_MS3_KFRKivENS6_10def_helperINS0_19return_value_policyINS0_20copy_const_referenceENS0_21default_call_policiesEEES7_S7_S7_EEEEvPT_PKcT0_RKT1_z
   fun:_ZN5boost6python6class_IN3psi6MatrixENS_10shared_ptrIS3_EENS0_6detail13not_specifiedES7_E19def_maybe_overloadsIMS3_KFRKivENS0_19return_value_policyINS0_20copy_const_referenceENS0_21default_call_policiesEEEEEvPKcT_RKT0_z
   fun:_Z12export_mintsv
   fun:_Z18init_module_PsiModv
   fun:_ZN5boost6python21handle_exception_implENS_9function0IvEE
   fun:_ZN5boost6python16handle_exceptionIPFvvEEEbT_
   fun:_ZN5boost6python6detail11init_moduleEPKcPFvvE
   fun:_PyImport_FixupExtension
}
{
   Boost Python memort leak
   Memcheck:Leak
   fun:malloc
   fun:_Znwm
   fun:_ZN5boost6python7objects15function_objectERKNS1_11py_functionERKSt4pairIPKNS0_6detail7keywordES9_E
   fun:_ZN5boost6python6detail17make_function_auxIMN3psi6MatrixEKFRKivENS0_19return_value_policyINS0_20copy_const_referenceENS0_21default_call_policiesEEENS_3mpl7vector2IS6_RS4_EEN4mpl_4int_ILi0EEEEENS0_3api6objectET_RKT0_RKT1_RKSt4pairIPKNS1_7keywordESW_ET2_
   fun:_ZN5boost6python6class_IN3psi6MatrixENS_10shared_ptrIS3_EENS0_6detail13not_specifiedES7_E8def_implIS3_MS3_KFRKivENS6_10def_helperINS0_19return_value_policyINS0_20copy_const_referenceENS0_21default_call_policiesEEES7_S7_S7_EEEEvPT_PKcT0_RKT1_z
   fun:_ZN5boost6python6class_IN3psi6MatrixENS_10shared_ptrIS3_EENS0_6detail13not_specifiedES7_E19def_maybe_overloadsIMS3_KFRKivENS0_19return_value_policyINS0_20copy_const_referenceENS0_21default_call_policiesEEEEEvPKcT_RKT0_z
   fun:_Z12export_mintsv
   fun:_Z18init_module_PsiModv
   fun:_ZN5boost6python21handle_exception_implENS_9function0IvEE
   fun:_ZN5boost6python16handle_exceptionIPFvvEEEbT_
   fun:_ZN5boost6python6detail11init_moduleEPKcPFvvE
   fun:_PyImport_FixupExtension
}
{
   Boost Python memort leak
   Memcheck:Leak
   fun:malloc
   fun:_Znwm
   fun:_ZN5boost6python7objects15function_objectERKNS1_11py_functionERKSt4pairIPKNS0_6detail7keywordES9_E
   fun:_ZN5boost6python6detail17make_function_auxIMN3psi6MatrixEFvvENS0_21default_call_policiesENS_3mpl7vector2IvRS4_EEN4mpl_4int_ILi0EEEEENS0_3api6objectET_RKT0_RKT1_RKSt4pairIPKNS1_7keywordESR_ET2_
   fun:_ZN5boost6python6class_IN3psi6MatrixENS_10shared_ptrIS3_EENS0_6detail13not_specifiedES7_E8def_implIS3_MS3_FvvENS6_10def_helperIPKcS7_S7_S7_EEEEvPT_SE_T0_RKT1_z
   fun:_Z12export_mintsv
   fun:_Z18init_module_PsiModv
   fun:_ZN5boost6python21handle_exception_implENS_9function0IvEE
   fun:_ZN5boost6python16handle_exceptionIPFvvEEEbT_
   fun:_ZN5boost6python6detail11init_moduleEPKcPFvvE
   fun:_PyImport_FixupExtension
   fun:_PyImport_FixupExtension
}
{
   Boost Python memort leak
   Memcheck:Leak
   fun:malloc
   fun:_Znwm
   fun:_ZN5boost6python7objects15function_objectERKNS1_11py_functionERKSt4pairIPKNS0_6detail7keywordES9_E
   fun:_ZN5boost6python6detail17make_function_auxIMN3psi6MatrixEFvvENS0_21default_call_policiesENS_3mpl7vector2IvRS4_EEN4mpl_4int_ILi0EEEEENS0_3api6objectET_RKT0_RKT1_RKSt4pairIPKNS1_7keywordESR_ET2_
   fun:_ZN5boost6python6class_IN3psi6MatrixENS_10shared_ptrIS3_EENS0_6detail13not_specifiedES7_E8def_implIS3_MS3_FvvENS6_10def_helperIPKcS7_S7_S7_EEEEvPT_SE_T0_RKT1_z
   fun:_Z12export_mintsv
   fun:_Z18init_module_PsiModv
   fun:_ZN5boost6python21handle_exception_implENS_9function0IvEE
   fun:_ZN5boost6python16handle_exceptionIPFvvEEEbT_
   fun:_ZN5boost6python6detail11init_moduleEPKcPFvvE
   fun:_PyImport_FixupExtension
   fun:_PyImport_FixupExtension
}
{
   Boost Python memort leak
   Memcheck:Leak
   fun:malloc
   fun:_Znwm
   fun:_ZN5boost6python7objects15function_objectERKNS1_11py_functionERKSt4pairIPKNS0_6detail7keywordES9_E
   fun:_ZN5boost6python6detail17make_function_auxIMN3psi6MatrixEFvvENS0_21default_call_policiesENS_3mpl7vector2IvRS4_EEN4mpl_4int_ILi0EEEEENS0_3api6objectET_RKT0_RKT1_RKSt4pairIPKNS1_7keywordESR_ET2_
   fun:_ZN5boost6python6class_IN3psi6MatrixENS_10shared_ptrIS3_EENS0_6detail13not_specifiedES7_E8def_implIS3_MS3_FvvENS6_10def_helperIPKcS7_S7_S7_EEEEvPT_SE_T0_RKT1_z
   fun:_Z12export_mintsv
   fun:_Z18init_module_PsiModv
   fun:_ZN5boost6python21handle_exception_implENS_9function0IvEE
   fun:_ZN5boost6python16handle_exceptionIPFvvEEEbT_
   fun:_ZN5boost6python6detail11init_moduleEPKcPFvvE
   fun:_PyImport_FixupExtension
   fun:_PyImport_FixupExtension
}
{
   Boost Python memort leak
   Memcheck:Leak
   fun:malloc
   fun:_Znwm
   fun:_ZN5boost6python7objects15function_objectERKNS1_11py_functionERKSt4pairIPKNS0_6detail7keywordES9_E
   fun:_ZN5boost6python6detail17make_function_auxIMN3psi6MatrixEFvvENS0_21default_call_policiesENS_3mpl7vector2IvRS4_EEN4mpl_4int_ILi0EEEEENS0_3api6objectET_RKT0_RKT1_RKSt4pairIPKNS1_7keywordESR_ET2_
   fun:_ZN5boost6python6class_IN3psi6MatrixENS_10shared_ptrIS3_EENS0_6detail13not_specifiedES7_E8def_implIS3_MS3_FvvENS6_10def_helperIPKcS7_S7_S7_EEEEvPT_SE_T0_RKT1_z
   fun:_Z12export_mintsv
   fun:_Z18init_module_PsiModv
   fun:_ZN5boost6python21handle_exception_implENS_9function0IvEE
   fun:_ZN5boost6python16handle_exceptionIPFvvEEEbT_
   fun:_ZN5boost6python6detail11init_moduleEPKcPFvvE
   fun:_PyImport_FixupExtension
   fun:_PyImport_FixupExtension
}
{
   Boost Python memort leak
   Memcheck:Leak
   fun:malloc
   fun:_Znwm
   fun:_ZN5boost6python7objects15function_objectERKNS1_11py_functionERKSt4pairIPKNS0_6detail7keywordES9_E
   fun:_ZN5boost6python6detail17make_function_auxIMN3psi6MatrixEFvvENS0_21default_call_policiesENS_3mpl7vector2IvRS4_EEN4mpl_4int_ILi0EEEEENS0_3api6objectET_RKT0_RKT1_RKSt4pairIPKNS1_7keywordESR_ET2_
   fun:_ZN5boost6python6class_IN3psi6MatrixENS_10shared_ptrIS3_EENS0_6detail13not_specifiedES7_E8def_implIS3_MS3_FvvENS6_10def_helperIPKcS7_S7_S7_EEEEvPT_SE_T0_RKT1_z
   fun:_Z12export_mintsv
   fun:_Z18init_module_PsiModv
   fun:_ZN5boost6python21handle_exception_implENS_9function0IvEE
   fun:_ZN5boost6python16handle_exceptionIPFvvEEEbT_
   fun:_ZN5boost6python6detail11init_moduleEPKcPFvvE
   fun:_PyImport_FixupExtension
   fun:_PyImport_FixupExtension
}
{
   Boost Python memort leak
   Memcheck:Leak
   fun:malloc
   fun:_Znwm
   fun:_ZN5boost6python7objects15function_objectERKNS1_11py_functionERKSt4pairIPKNS0_6detail7keywordES9_E
   fun:_ZN5boost6python6detail17make_function_auxIMN3psi6MatrixEFvvENS0_21default_call_policiesENS_3mpl7vector2IvRS4_EEN4mpl_4int_ILi0EEEEENS0_3api6objectET_RKT0_RKT1_RKSt4pairIPKNS1_7keywordESR_ET2_
   fun:_ZN5boost6python6class_IN3psi6MatrixENS_10shared_ptrIS3_EENS0_6detail13not_specifiedES7_E8def_implIS3_MS3_FvvENS6_10def_helperIPKcS7_S7_S7_EEEEvPT_SE_T0_RKT1_z
   fun:_Z12export_mintsv
   fun:_Z18init_module_PsiModv
   fun:_ZN5boost6python21handle_exception_implENS_9function0IvEE
   fun:_ZN5boost6python16handle_exceptionIPFvvEEEbT_
   fun:_ZN5boost6python6detail11init_moduleEPKcPFvvE
   fun:_PyImport_FixupExtension
   fun:_PyImport_FixupExtension
}
{
   Boost Python memort leak
   Memcheck:Leak
   fun:malloc
   fun:_Znwm
   fun:_ZN5boost6python7objects15function_objectERKNS1_11py_functionERKSt4pairIPKNS0_6detail7keywordES9_E
   fun:_ZN5boost6python6detail17make_function_auxIMN3psi6MatrixEFvvENS0_21default_call_policiesENS_3mpl7vector2IvRS4_EEN4mpl_4int_ILi0EEEEENS0_3api6objectET_RKT0_RKT1_RKSt4pairIPKNS1_7keywordESR_ET2_
   fun:_ZN5boost6python6class_IN3psi6MatrixENS_10shared_ptrIS3_EENS0_6detail13not_specifiedES7_E8def_implIS3_MS3_FvvENS6_10def_helperIPKcS7_S7_S7_EEEEvPT_SE_T0_RKT1_z
   fun:_Z12export_mintsv
   fun:_Z18init_module_PsiModv
   fun:_ZN5boost6python21handle_exception_implENS_9function0IvEE
   fun:_ZN5boost6python16handle_exceptionIPFvvEEEbT_
   fun:_ZN5boost6python6detail11init_moduleEPKcPFvvE
   fun:_PyImport_FixupExtension
   fun:_PyImport_FixupExtension
}
{
   Boost Python memort leak
   Memcheck:Leak
   fun:malloc
   fun:_Znwm
   fun:_ZN5boost6python7objects15function_objectERKNS1_11py_functionERKSt4pairIPKNS0_6detail7keywordES9_E
   fun:_ZN5boost6python6detail17make_function_auxIMN3psi6MatrixEFdvENS0_21default_call_policiesENS_3mpl7vector2IdRS4_EEN4mpl_4int_ILi0EEEEENS0_3api6objectET_RKT0_RKT1_RKSt4pairIPKNS1_7keywordESR_ET2_
   fun:_ZN5boost6python6class_IN3psi6MatrixENS_10shared_ptrIS3_EENS0_6detail13not_specifiedES7_E8def_implIS3_MS3_FdvENS6_10def_helperIPKcS7_S7_S7_EEEEvPT_SE_T0_RKT1_z
   fun:_Z12export_mintsv
   fun:_Z18init_module_PsiModv
   fun:_ZN5boost6python21handle_exception_implENS_9function0IvEE
   fun:_ZN5boost6python16handle_exceptionIPFvvEEEbT_
   fun:_ZN5boost6python6detail11init_moduleEPKcPFvvE
   fun:_PyImport_FixupExtension
   fun:_PyImport_FixupExtension
}
{
   Boost Python memort leak
   Memcheck:Leak
   fun:malloc
   fun:_Znwm
   fun:_ZN5boost6python7objects15function_objectERKNS1_11py_functionERKSt4pairIPKNS0_6detail7keywordES9_E
   fun:_ZN5boost6python6detail17make_function_auxIMN3psi6MatrixEFvRKNS_10shared_ptrIS4_EEENS0_21default_call_policiesENS_3mpl7vector3IvRS4_S8_EEN4mpl_4int_ILi0EEEEENS0_3api6objectET_RKT0_RKT1_RKSt4pairIPKNS1_7keywordESV_ET2_
   fun:_ZN5boost6python6class_IN3psi6MatrixENS_10shared_ptrIS3_EENS0_6detail13not_specifiedES7_E8def_implIS3_MS3_FvRKS5_ENS6_10def_helperIPKcS7_S7_S7_EEEEvPT_SG_T0_RKT1_z
   fun:_Z12export_mintsv
   fun:_Z18init_module_PsiModv
   fun:_ZN5boost6python21handle_exception_implENS_9function0IvEE
   fun:_ZN5boost6python16handle_exceptionIPFvvEEEbT_
   fun:_ZN5boost6python6detail11init_moduleEPKcPFvvE
   fun:_PyImport_FixupExtension
   fun:_PyImport_FixupExtension
}
{
   Boost Python memort leak
   Memcheck:Leak
   fun:malloc
   fun:_Znwm
   fun:_ZN5boost6python7objects15function_objectERKNS1_11py_functionERKSt4pairIPKNS0_6detail7keywordES9_E
   fun:_ZN5boost6python6detail17make_function_auxIMN3psi6MatrixEFvRKNS_10shared_ptrIS4_EEENS0_21default_call_policiesENS_3mpl7vector3IvRS4_S8_EEN4mpl_4int_ILi0EEEEENS0_3api6objectET_RKT0_RKT1_RKSt4pairIPKNS1_7keywordESV_ET2_
   fun:_ZN5boost6python6class_IN3psi6MatrixENS_10shared_ptrIS3_EENS0_6detail13not_specifiedES7_E8def_implIS3_MS3_FvRKS5_ENS6_10def_helperIPKcS7_S7_S7_EEEEvPT_SG_T0_RKT1_z
   fun:_Z12export_mintsv
   fun:_Z18init_module_PsiModv
   fun:_ZN5boost6python21handle_exception_implENS_9function0IvEE
   fun:_ZN5boost6python16handle_exceptionIPFvvEEEbT_
   fun:_ZN5boost6python6detail11init_moduleEPKcPFvvE
   fun:_PyImport_FixupExtension
   fun:_PyImport_FixupExtension
}
{
   Boost Python memort leak
   Memcheck:Leak
   fun:malloc
   fun:_Znwm
   fun:_ZN5boost6python7objects15function_objectERKNS1_11py_functionERKSt4pairIPKNS0_6detail7keywordES9_E
   fun:_ZN5boost6python6detail17make_function_auxIMN3psi6MatrixEFvRKNS_10shared_ptrIS4_EES8_ENS0_21default_call_policiesENS_3mpl7vector4IvRS4_S8_S8_EEN4mpl_4int_ILi0EEEEENS0_3api6objectET_RKT0_RKT1_RKSt4pairIPKNS1_7keywordESV_ET2_
   fun:_ZN5boost6python6class_IN3psi6MatrixENS_10shared_ptrIS3_EENS0_6detail13not_specifiedES7_E8def_implIS3_MS3_FvRKS5_SB_ENS6_10def_helperIPKcS7_S7_S7_EEEEvPT_SG_T0_RKT1_z
   fun:_Z12export_mintsv
   fun:_Z18init_module_PsiModv
   fun:_ZN5boost6python21handle_exception_implENS_9function0IvEE
   fun:_ZN5boost6python16handle_exceptionIPFvvEEEbT_
   fun:_ZN5boost6python6detail11init_moduleEPKcPFvvE
   fun:_PyImport_FixupExtension
   fun:_PyImport_FixupExtension
}
{
   Boost Python memort leak
   Memcheck:Leak
   fun:malloc
   fun:_Znwm
   fun:_ZN5boost6python7objects15function_objectERKNS1_11py_functionERKSt4pairIPKNS0_6detail7keywordES9_E
   fun:_ZN5boost6python6detail17make_function_auxIMN3psi6MatrixEFvdENS0_21default_call_policiesENS_3mpl7vector3IvRS4_dEEN4mpl_4int_ILi0EEEEENS0_3api6objectET_RKT0_RKT1_RKSt4pairIPKNS1_7keywordESR_ET2_
   fun:_ZN5boost6python6class_IN3psi6MatrixENS_10shared_ptrIS3_EENS0_6detail13not_specifiedES7_E8def_implIS3_MS3_FvdENS6_10def_helperIPKcS7_S7_S7_EEEEvPT_SE_T0_RKT1_z
   fun:_Z12export_mintsv
   fun:_Z18init_module_PsiModv
   fun:_ZN5boost6python21handle_exception_implENS_9function0IvEE
   fun:_ZN5boost6python16handle_exceptionIPFvvEEEbT_
   fun:_ZN5boost6python6detail11init_moduleEPKcPFvvE
   fun:_PyImport_FixupExtension
   fun:_PyImport_FixupExtension
}
{
   Boost Python memort leak
   Memcheck:Leak
   fun:malloc
   fun:_Znwm
   fun:_ZN5boost6python7objects15function_objectERKNS1_11py_functionERKSt4pairIPKNS0_6detail7keywordES9_E
   fun:_ZN5boost6python6detail17make_function_auxIMN3psi6MatrixEFdvENS0_21default_call_policiesENS_3mpl7vector2IdRS4_EEN4mpl_4int_ILi0EEEEENS0_3api6objectET_RKT0_RKT1_RKSt4pairIPKNS1_7keywordESR_ET2_
   fun:_ZN5boost6python6class_IN3psi6MatrixENS_10shared_ptrIS3_EENS0_6detail13not_specifiedES7_E8def_implIS3_MS3_FdvENS6_10def_helperIPKcS7_S7_S7_EEEEvPT_SE_T0_RKT1_z
   fun:_Z12export_mintsv
   fun:_Z18init_module_PsiModv
   fun:_ZN5boost6python21handle_exception_implENS_9function0IvEE
   fun:_ZN5boost6python16handle_exceptionIPFvvEEEbT_
   fun:_ZN5boost6python6detail11init_moduleEPKcPFvvE
   fun:_PyImport_FixupExtension
   fun:_PyImport_FixupExtension
}
{
   Boost Python memort leak
   Memcheck:Leak
   fun:malloc
   fun:_Znwm
   fun:_ZN5boost6python7objects15function_objectERKNS1_11py_functionERKSt4pairIPKNS0_6detail7keywordES9_E
   fun:_ZN5boost6python6detail17make_function_auxIMN3psi6MatrixEFdvENS0_21default_call_policiesENS_3mpl7vector2IdRS4_EEN4mpl_4int_ILi0EEEEENS0_3api6objectET_RKT0_RKT1_RKSt4pairIPKNS1_7keywordESR_ET2_
   fun:_ZN5boost6python6class_IN3psi6MatrixENS_10shared_ptrIS3_EENS0_6detail13not_specifiedES7_E8def_implIS3_MS3_FdvENS6_10def_helperIPKcS7_S7_S7_EEEEvPT_SE_T0_RKT1_z
   fun:_Z12export_mintsv
   fun:_Z18init_module_PsiModv
   fun:_ZN5boost6python21handle_exception_implENS_9function0IvEE
   fun:_ZN5boost6python16handle_exceptionIPFvvEEEbT_
   fun:_ZN5boost6python6detail11init_moduleEPKcPFvvE
   fun:_PyImport_FixupExtension
   fun:_PyImport_FixupExtension
}
{
   Boost Python memort leak
   Memcheck:Leak
   fun:malloc
   fun:_Znwm
   fun:_ZN5boost6python7objects15function_objectERKNS1_11py_functionERKSt4pairIPKNS0_6detail7keywordES9_E
   fun:_ZN5boost6python6detail17make_function_auxIMN3psi6MatrixEFviidENS0_21default_call_policiesENS_3mpl7vector5IvRS4_iidEEN4mpl_4int_ILi0EEEEENS0_3api6objectET_RKT0_RKT1_RKSt4pairIPKNS1_7keywordESR_ET2_
   fun:_ZN5boost6python6class_IN3psi6MatrixENS_10shared_ptrIS3_EENS0_6detail13not_specifiedES7_E8def_implIS3_MS3_FviidENS6_10def_helperIPKcS7_S7_S7_EEEEvPT_SE_T0_RKT1_z
   fun:_Z12export_mintsv
   fun:_Z18init_module_PsiModv
   fun:_ZN5boost6python21handle_exception_implENS_9function0IvEE
   fun:_ZN5boost6python16handle_exceptionIPFvvEEEbT_
   fun:_ZN5boost6python6detail11init_moduleEPKcPFvvE
   fun:_PyImport_FixupExtension
   fun:_PyImport_FixupExtension
}
{
   Boost Python memort leak
   Memcheck:Leak
   fun:malloc
   fun:_Znwm
   fun:_ZN5boost6python7objects15function_objectERKNS1_11py_functionERKSt4pairIPKNS0_6detail7keywordES9_E
   fun:_ZN5boost6python6detail17make_function_auxIMN3psi6MatrixEFviidENS0_21default_call_policiesENS_3mpl7vector5IvRS4_iidEEN4mpl_4int_ILi0EEEEENS0_3api6objectET_RKT0_RKT1_RKSt4pairIPKNS1_7keywordESR_ET2_
   fun:_ZN5boost6python6class_IN3psi6MatrixENS_10shared_ptrIS3_EENS0_6detail13not_specifiedES7_E8def_implIS3_MS3_FviidENS6_10def_helperIPKcS7_S7_S7_EEEEvPT_SE_T0_RKT1_z
   fun:_Z12export_mintsv
   fun:_Z18init_module_PsiModv
   fun:_ZN5boost6python21handle_exception_implENS_9function0IvEE
   fun:_ZN5boost6python16handle_exceptionIPFvvEEEbT_
   fun:_ZN5boost6python6detail11init_moduleEPKcPFvvE
   fun:_PyImport_FixupExtension
   fun:_PyImport_FixupExtension
}
{
   Boost Python memort leak
   Memcheck:Leak
   fun:malloc
   fun:_Znwm
   fun:_ZN5boost6python7objects15function_objectERKNS1_11py_functionERKSt4pairIPKNS0_6detail7keywordES9_E
   fun:_ZN5boost6python6detail17make_function_auxIMN3psi6MatrixEFvRKNS_10shared_ptrIS4_EEENS0_21default_call_policiesENS_3mpl7vector3IvRS4_S8_EEN4mpl_4int_ILi0EEEEENS0_3api6objectET_RKT0_RKT1_RKSt4pairIPKNS1_7keywordESV_ET2_
   fun:_ZN5boost6python6class_IN3psi6MatrixENS_10shared_ptrIS3_EENS0_6detail13not_specifiedES7_E8def_implIS3_MS3_FvRKS5_ENS6_10def_helperIPKcS7_S7_S7_EEEEvPT_SG_T0_RKT1_z
   fun:_Z12export_mintsv
   fun:_Z18init_module_PsiModv
   fun:_ZN5boost6python21handle_exception_implENS_9function0IvEE
   fun:_ZN5boost6python16handle_exceptionIPFvvEEEbT_
   fun:_ZN5boost6python6detail11init_moduleEPKcPFvvE
   fun:_PyImport_FixupExtension
   fun:_PyImport_FixupExtension
}
{
   Boost Python memort leak
   Memcheck:Leak
   fun:malloc
   fun:_Znwm
   fun:_ZN5boost6python7objects15function_objectERKNS1_11py_functionERKSt4pairIPKNS0_6detail7keywordES9_E
   fun:_ZN5boost6python6detail17make_function_auxIMN3psi6MatrixEFvRKNS_10shared_ptrIS4_EES8_ENS0_21default_call_policiesENS_3mpl7vector4IvRS4_S8_S8_EEN4mpl_4int_ILi0EEEEENS0_3api6objectET_RKT0_RKT1_RKSt4pairIPKNS1_7keywordESV_ET2_
   fun:_ZN5boost6python6class_IN3psi6MatrixENS_10shared_ptrIS3_EENS0_6detail13not_specifiedES7_E8def_implIS3_MS3_FvRKS5_SB_ENS6_10def_helperIPKcS7_S7_S7_EEEEvPT_SG_T0_RKT1_z
   fun:_Z12export_mintsv
   fun:_Z18init_module_PsiModv
   fun:_ZN5boost6python21handle_exception_implENS_9function0IvEE
   fun:_ZN5boost6python16handle_exceptionIPFvvEEEbT_
   fun:_ZN5boost6python6detail11init_moduleEPKcPFvvE
   fun:_PyImport_FixupExtension
   fun:_PyImport_FixupExtension
}
{
   Boost Python memort leak
   Memcheck:Leak
   fun:malloc
   fun:_Znwm
   fun:_ZN5boost6python7objects15function_objectERKNS1_11py_functionERKSt4pairIPKNS0_6detail7keywordES9_E
   fun:_ZN5boost6python6detail17make_function_auxIMN3psi6MatrixEFvRKNS_10shared_ptrIS4_EEENS0_21default_call_policiesENS_3mpl7vector3IvRS4_S8_EEN4mpl_4int_ILi0EEEEENS0_3api6objectET_RKT0_RKT1_RKSt4pairIPKNS1_7keywordESV_ET2_
   fun:_ZN5boost6python6class_IN3psi6MatrixENS_10shared_ptrIS3_EENS0_6detail13not_specifiedES7_E8def_implIS3_MS3_FvRKS5_ENS6_10def_helperIPKcS7_S7_S7_EEEEvPT_SG_T0_RKT1_z
   fun:_Z12export_mintsv
   fun:_Z18init_module_PsiModv
   fun:_ZN5boost6python21handle_exception_implENS_9function0IvEE
   fun:_ZN5boost6python16handle_exceptionIPFvvEEEbT_
   fun:_ZN5boost6python6detail11init_moduleEPKcPFvvE
   fun:_PyImport_FixupExtension
   fun:_PyImport_FixupExtension
}
{
   Boost Python memort leak
   Memcheck:Leak
   fun:malloc
   fun:_Znwm
   fun:_ZN5boost6python7objects15function_objectERKNS1_11py_functionERKSt4pairIPKNS0_6detail7keywordES9_E
   fun:_ZN5boost6python6detail17make_function_auxIMN3psi6MatrixEFvRKNS_10shared_ptrIS4_EES8_ENS0_21default_call_policiesENS_3mpl7vector4IvRS4_S8_S8_EEN4mpl_4int_ILi0EEEEENS0_3api6objectET_RKT0_RKT1_RKSt4pairIPKNS1_7keywordESV_ET2_
   fun:_ZN5boost6python6class_IN3psi6MatrixENS_10shared_ptrIS3_EENS0_6detail13not_specifiedES7_E8def_implIS3_MS3_FvRKS5_SB_ENS6_10def_helperIPKcS7_S7_S7_EEEEvPT_SG_T0_RKT1_z
   fun:_Z12export_mintsv
   fun:_Z18init_module_PsiModv
   fun:_ZN5boost6python21handle_exception_implENS_9function0IvEE
   fun:_ZN5boost6python16handle_exceptionIPFvvEEEbT_
   fun:_ZN5boost6python6detail11init_moduleEPKcPFvvE
   fun:_PyImport_FixupExtension
   fun:_PyImport_FixupExtension
}
{
   Boost Python memort leak
   Memcheck:Leak
   fun:malloc
   fun:_Znwm
   fun:_ZN5boost6python7objects15function_objectERKNS1_11py_functionERKSt4pairIPKNS0_6detail7keywordES9_E
   fun:_ZN5boost6python6detail17make_function_auxIMN3psi6MatrixEFdRKNS_10shared_ptrIS4_EEENS0_21default_call_policiesENS_3mpl7vector3IdRS4_S8_EEN4mpl_4int_ILi0EEEEENS0_3api6objectET_RKT0_RKT1_RKSt4pairIPKNS1_7keywordESV_ET2_
   fun:_ZN5boost6python6class_IN3psi6MatrixENS_10shared_ptrIS3_EENS0_6detail13not_specifiedES7_E8def_implIS3_MS3_FdRKS5_ENS6_10def_helperIPKcS7_S7_S7_EEEEvPT_SG_T0_RKT1_z
   fun:_Z12export_mintsv
   fun:_Z18init_module_PsiModv
   fun:_ZN5boost6python21handle_exception_implENS_9function0IvEE
   fun:_ZN5boost6python16handle_exceptionIPFvvEEEbT_
   fun:_ZN5boost6python6detail11init_moduleEPKcPFvvE
   fun:_PyImport_FixupExtension
   fun:_PyImport_FixupExtension
}
{
   Boost Python memort leak
   Memcheck:Leak
   fun:malloc
   fun:_Znwm
   fun:_ZN5boost6python7objects15function_objectERKNS1_11py_functionERKSt4pairIPKNS0_6detail7keywordES9_E
   fun:_ZN5boost6python6detail17make_function_auxIMN3psi6MatrixEFvbbdRKNS_10shared_ptrIS4_EES8_dENS0_21default_call_policiesENS_3mpl7vector8IvRS4_bbdS8_S8_dEEN4mpl_4int_ILi0EEEEENS0_3api6objectET_RKT0_RKT1_RKSt4pairIPKNS1_7keywordESV_ET2_
   fun:_ZN5boost6python6class_IN3psi6MatrixENS_10shared_ptrIS3_EENS0_6detail13not_specifiedES7_E8def_implIS3_MS3_FvbbdRKS5_SB_dENS6_10def_helperIPKcS7_S7_S7_EEEEvPT_SG_T0_RKT1_z
   fun:_Z12export_mintsv
   fun:_Z18init_module_PsiModv
   fun:_ZN5boost6python21handle_exception_implENS_9function0IvEE
   fun:_ZN5boost6python16handle_exceptionIPFvvEEEbT_
   fun:_ZN5boost6python6detail11init_moduleEPKcPFvvE
   fun:_PyImport_FixupExtension
   fun:_PyImport_FixupExtension
}
{
   Boost Python memort leak
   Memcheck:Leak
   fun:malloc
   fun:_Znwm
   fun:_ZN5boost6python7objects15function_objectERKNS1_11py_functionERKSt4pairIPKNS0_6detail7keywordES9_E
   fun:_ZN5boost6python6detail17make_function_auxIMN3psi6MatrixEFvRNS_10shared_ptrIS4_EERNS5_INS3_6VectorEEENS4_16DiagonalizeOrderEENS0_21default_call_policiesENS_3mpl7vector5IvRS4_S7_SA_SB_EEN4mpl_4int_ILi0EEEEENS0_3api6objectET_RKT0_RKT1_RKSt4pairIPKNS1_7keywordESY_ET2_
   fun:_ZN5boost6python6class_IN3psi6MatrixENS_10shared_ptrIS3_EENS0_6detail13not_specifiedES7_E8def_implIS3_MS3_FvRS5_RNS4_INS2_6VectorEEENS3_16DiagonalizeOrderEENS6_10def_helperIPKcS7_S7_S7_EEEEvPT_SJ_T0_RKT1_z
   fun:_Z12export_mintsv
   fun:_Z18init_module_PsiModv
   fun:_ZN5boost6python21handle_exception_implENS_9function0IvEE
   fun:_ZN5boost6python16handle_exceptionIPFvvEEEbT_
   fun:_ZN5boost6python6detail11init_moduleEPKcPFvvE
   fun:_PyImport_FixupExtension
   fun:_PyImport_FixupExtension
}
{
   Boost Python memort leak
   Memcheck:Leak
   fun:malloc
   fun:_Znwm
   fun:_ZN5boost6python7objects15function_objectERKNS1_11py_functionERKSt4pairIPKNS0_6detail7keywordES9_E
   fun:_ZN5boost6python6detail17make_function_auxIMN3psi6MatrixEFvvENS0_21default_call_policiesENS_3mpl7vector2IvRS4_EEN4mpl_4int_ILi0EEEEENS0_3api6objectET_RKT0_RKT1_RKSt4pairIPKNS1_7keywordESR_ET2_
   fun:_ZN5boost6python6class_IN3psi6MatrixENS_10shared_ptrIS3_EENS0_6detail13not_specifiedES7_E8def_implIS3_MS3_FvvENS6_10def_helperIPKcS7_S7_S7_EEEEvPT_SE_T0_RKT1_z
   fun:_Z12export_mintsv
   fun:_Z18init_module_PsiModv
   fun:_ZN5boost6python21handle_exception_implENS_9function0IvEE
   fun:_ZN5boost6python16handle_exceptionIPFvvEEEbT_
   fun:_ZN5boost6python6detail11init_moduleEPKcPFvvE
   fun:_PyImport_FixupExtension
   fun:_PyImport_FixupExtension
}
{
   Boost Python memort leak
   Memcheck:Leak
   fun:malloc
   fun:_Znwm
   fun:_ZN5boost6python7objects15function_objectERKNS1_11py_functionERKSt4pairIPKNS0_6detail7keywordES9_E
   fun:_ZN5boost6python6detail17make_function_auxIMN3psi6MatrixEFNS_10shared_ptrIS4_EEdbENS0_21default_call_policiesENS_3mpl7vector4IS6_RS4_dbEEN4mpl_4int_ILi0EEEEENS0_3api6objectET_RKT0_RKT1_RKSt4pairIPKNS1_7keywordEST_ET2_
   fun:_ZN5boost6python6class_IN3psi6MatrixENS_10shared_ptrIS3_EENS0_6detail13not_specifiedES7_E8def_implIS3_MS3_FS5_dbENS6_10def_helperIPKcS7_S7_S7_EEEEvPT_SE_T0_RKT1_z
   fun:_Z12export_mintsv
   fun:_Z18init_module_PsiModv
   fun:_ZN5boost6python21handle_exception_implENS_9function0IvEE
   fun:_ZN5boost6python16handle_exceptionIPFvvEEEbT_
   fun:_ZN5boost6python6detail11init_moduleEPKcPFvvE
   fun:_PyImport_FixupExtension
   fun:_PyImport_FixupExtension
}
{
   Boost Python memort leak
   Memcheck:Leak
   fun:malloc
   fun:_Znwm
   fun:_ZN5boost6python7objects15function_objectERKNS1_11py_functionERKSt4pairIPKNS0_6detail7keywordES9_E
   fun:_ZN5boost6python6detail17make_function_auxIMN3psi6MatrixEFvvENS0_21default_call_policiesENS_3mpl7vector2IvRS4_EEN4mpl_4int_ILi0EEEEENS0_3api6objectET_RKT0_RKT1_RKSt4pairIPKNS1_7keywordESR_ET2_
   fun:_ZN5boost6python6class_IN3psi6MatrixENS_10shared_ptrIS3_EENS0_6detail13not_specifiedES7_E8def_implIS3_MS3_FvvENS6_10def_helperIPKcS7_S7_S7_EEEEvPT_SE_T0_RKT1_z
   fun:_Z12export_mintsv
   fun:_Z18init_module_PsiModv
   fun:_ZN5boost6python21handle_exception_implENS_9function0IvEE
   fun:_ZN5boost6python16handle_exceptionIPFvvEEEbT_
   fun:_ZN5boost6python6detail11init_moduleEPKcPFvvE
   fun:_PyImport_FixupExtension
   fun:_PyImport_FixupExtension
}
{
   Boost Python memort leak
   Memcheck:Leak
   fun:malloc
   fun:_Znwm
   fun:_ZN5boost6python7objects15function_objectERKNS1_11py_functionERKSt4pairIPKNS0_6detail7keywordES9_E
   fun:_ZN5boost6python6detail17make_function_auxIMN3psi6MatrixEFvddENS0_21default_call_policiesENS_3mpl7vector4IvRS4_ddEEN4mpl_4int_ILi0EEEEENS0_3api6objectET_RKT0_RKT1_RKSt4pairIPKNS1_7keywordESR_ET2_
   fun:_ZN5boost6python6class_IN3psi6MatrixENS_10shared_ptrIS3_EENS0_6detail13not_specifiedES7_E8def_implIS3_MS3_FvddENS6_10def_helperIPKcS7_S7_S7_EEEEvPT_SE_T0_RKT1_z
   fun:_Z12export_mintsv
   fun:_Z18init_module_PsiModv
   fun:_ZN5boost6python21handle_exception_implENS_9function0IvEE
   fun:_ZN5boost6python16handle_exceptionIPFvvEEEbT_
   fun:_ZN5boost6python6detail11init_moduleEPKcPFvvE
   fun:_PyImport_FixupExtension
   fun:_PyImport_FixupExtension
}
{
   Boost Python memort leak
   Memcheck:Leak
   fun:malloc
   fun:_Znwm
   fun:_ZN5boost6python7objects15function_objectERKNS1_11py_functionERKSt4pairIPKNS0_6detail7keywordES9_E
   fun:_ZN5boost6python6detail17make_function_auxIMN3psi6MatrixEFvvENS0_21default_call_policiesENS_3mpl7vector2IvRS4_EEN4mpl_4int_ILi0EEEEENS0_3api6objectET_RKT0_RKT1_RKSt4pairIPKNS1_7keywordESR_ET2_
   fun:_ZN5boost6python6class_IN3psi6MatrixENS_10shared_ptrIS3_EENS0_6detail13not_specifiedES7_E8def_implIS3_MS3_FvvENS6_10def_helperIPKcS7_S7_S7_EEEEvPT_SE_T0_RKT1_z
   fun:_Z12export_mintsv
   fun:_Z18init_module_PsiModv
   fun:_ZN5boost6python21handle_exception_implENS_9function0IvEE
   fun:_ZN5boost6python16handle_exceptionIPFvvEEEbT_
   fun:_ZN5boost6python6detail11init_moduleEPKcPFvvE
   fun:_PyImport_FixupExtension
   fun:_PyImport_FixupExtension
}
{
   Boost Python memort leak
   Memcheck:Leak
   fun:malloc
   fun:_Znwm
   fun:_ZN5boost6python7objects15function_objectERKNS1_11py_functionERKSt4pairIPKNS0_6detail7keywordES9_E
   fun:_ZN5boost6python6detail17make_function_auxIMN3psi6MatrixEKFdRKiS6_S6_ENS0_21default_call_policiesENS_3mpl7vector5IdRS4_S6_S6_S6_EEN4mpl_4int_ILi0EEEEENS0_3api6objectET_RKT0_RKT1_RKSt4pairIPKNS1_7keywordEST_ET2_
   fun:_ZN5boost6python6class_IN3psi6MatrixENS_10shared_ptrIS3_EENS0_6detail13not_specifiedES7_E8def_implIS3_MS3_KFdRKiSB_SB_ENS6_10def_helperIPKcS7_S7_S7_EEEEvPT_SG_T0_RKT1_z
   fun:_Z12export_mintsv
   fun:_Z18init_module_PsiModv
   fun:_ZN5boost6python21handle_exception_implENS_9function0IvEE
   fun:_ZN5boost6python16handle_exceptionIPFvvEEEbT_
   fun:_ZN5boost6python6detail11init_moduleEPKcPFvvE
   fun:_PyImport_FixupExtension
   fun:_PyImport_FixupExtension
}
{
   Boost Python memort leak
   Memcheck:Leak
   fun:malloc
   fun:_Znwm
   fun:_ZN5boost6python7objects15function_objectERKNS1_11py_functionERKSt4pairIPKNS0_6detail7keywordES9_E
   fun:_ZN5boost6python6detail17make_function_auxIMN3psi6MatrixEKFdRKiS6_ENS0_21default_call_policiesENS_3mpl7vector4IdRS4_S6_S6_EEN4mpl_4int_ILi0EEEEENS0_3api6objectET_RKT0_RKT1_RKSt4pairIPKNS1_7keywordEST_ET2_
   fun:_ZN5boost6python6class_IN3psi6MatrixENS_10shared_ptrIS3_EENS0_6detail13not_specifiedES7_E8def_implIS3_MS3_KFdRKiSB_ENS6_10def_helperIPKcS7_S7_S7_EEEEvPT_SG_T0_RKT1_z
   fun:_Z12export_mintsv
   fun:_Z18init_module_PsiModv
   fun:_ZN5boost6python21handle_exception_implENS_9function0IvEE
   fun:_ZN5boost6python16handle_exceptionIPFvvEEEbT_
   fun:_ZN5boost6python6detail11init_moduleEPKcPFvvE
   fun:_PyImport_FixupExtension
   fun:_PyImport_FixupExtension
}
{
   Boost Python memort leak
   Memcheck:Leak
   fun:malloc
   fun:_Znwm
   fun:_ZN5boost6python7objects15function_objectERKNS1_11py_functionERKSt4pairIPKNS0_6detail7keywordES9_E
   fun:_ZN5boost6python6detail17make_function_auxIMN3psi6MatrixEFviidENS0_21default_call_policiesENS_3mpl7vector5IvRS4_iidEEN4mpl_4int_ILi0EEEEENS0_3api6objectET_RKT0_RKT1_RKSt4pairIPKNS1_7keywordESR_ET2_
   fun:_ZN5boost6python6class_IN3psi6MatrixENS_10shared_ptrIS3_EENS0_6detail13not_specifiedES7_E8def_implIS3_MS3_FviidENS6_10def_helperIPKcS7_S7_S7_EEEEvPT_SE_T0_RKT1_z
   fun:_Z12export_mintsv
   fun:_Z18init_module_PsiModv
   fun:_ZN5boost6python21handle_exception_implENS_9function0IvEE
   fun:_ZN5boost6python16handle_exceptionIPFvvEEEbT_
   fun:_ZN5boost6python6detail11init_moduleEPKcPFvvE
   fun:_PyImport_FixupExtension
   fun:_PyImport_FixupExtension
}
{
   Boost Python memort leak
   Memcheck:Leak
   fun:malloc
   fun:_Znwm
   fun:_ZN5boost6python7objects15function_objectERKNS1_11py_functionERKSt4pairIPKNS0_6detail7keywordES9_E
   fun:_ZN5boost6python6detail17make_function_auxIMN3psi6MatrixEFviiidENS0_21default_call_policiesENS_3mpl7vector6IvRS4_iiidEEN4mpl_4int_ILi0EEEEENS0_3api6objectET_RKT0_RKT1_RKSt4pairIPKNS1_7keywordESR_ET2_
   fun:_ZN5boost6python6class_IN3psi6MatrixENS_10shared_ptrIS3_EENS0_6detail13not_specifiedES7_E8def_implIS3_MS3_FviiidENS6_10def_helperIPKcS7_S7_S7_EEEEvPT_SE_T0_RKT1_z
   fun:_Z12export_mintsv
   fun:_Z18init_module_PsiModv
   fun:_ZN5boost6python21handle_exception_implENS_9function0IvEE
   fun:_ZN5boost6python16handle_exceptionIPFvvEEEbT_
   fun:_ZN5boost6python6detail11init_moduleEPKcPFvvE
   fun:_PyImport_FixupExtension
   fun:_PyImport_FixupExtension
}
{
   Boost Python memort leak
   Memcheck:Leak
   fun:malloc
   fun:_Znwm
   fun:_ZN5boost6python7objects15function_objectERKNS1_11py_functionERKSt4pairIPKNS0_6detail7keywordES9_E
   fun:_ZN5boost6python6detail17make_function_auxIMN3psi6MatrixEFvRKNS0_4listEENS0_21default_call_policiesENS_3mpl7vector3IvRS4_S7_EEN4mpl_4int_ILi0EEEEENS0_3api6objectET_RKT0_RKT1_RKSt4pairIPKNS1_7keywordESU_ET2_
   fun:_ZN5boost6python6class_IN3psi6MatrixENS_10shared_ptrIS3_EENS0_6detail13not_specifiedES7_E8def_implIS3_MS3_FvRKNS0_4listEENS6_10def_helperIPKcS7_S7_S7_EEEEvPT_SH_T0_RKT1_z
   fun:_Z12export_mintsv
   fun:_Z18init_module_PsiModv
   fun:_ZN5boost6python21handle_exception_implENS_9function0IvEE
   fun:_ZN5boost6python16handle_exceptionIPFvvEEEbT_
   fun:_ZN5boost6python6detail11init_moduleEPKcPFvvE
   fun:_PyImport_FixupExtension
   fun:_PyImport_FixupExtension
}
{
   Boost Python memort leak
   Memcheck:Leak
   fun:malloc
   fun:_Znwm
   fun:_ZN5boost6python7objects15function_objectERKNS1_11py_functionERKSt4pairIPKNS0_6detail7keywordES9_E
   fun:_ZN5boost6python6detail17make_function_auxIMN3psi6MatrixEFvRS4_ENS0_21default_call_policiesENS_3mpl7vector3IvS5_S5_EEN4mpl_4int_ILi0EEEEENS0_3api6objectET_RKT0_RKT1_RKSt4pairIPKNS1_7keywordESR_ET2_
   fun:_ZN5boost6python6class_IN3psi6MatrixENS_10shared_ptrIS3_EENS0_6detail13not_specifiedES7_E8def_implIS3_MS3_FvRS3_ENS6_10def_helperIPKcS7_S7_S7_EEEEvPT_SF_T0_RKT1_z
   fun:_Z12export_mintsv
   fun:_Z18init_module_PsiModv
   fun:_ZN5boost6python21handle_exception_implENS_9function0IvEE
   fun:_ZN5boost6python16handle_exceptionIPFvvEEEbT_
   fun:_ZN5boost6python6detail11init_moduleEPKcPFvvE
   fun:_PyImport_FixupExtension
   fun:_PyImport_FixupExtension
}
{
   Boost Python memort leak
   Memcheck:Leak
   fun:malloc
   fun:_Znwm
   fun:_ZN5boost6python7objects15function_objectERKNS1_11py_functionERKSt4pairIPKNS0_6detail7keywordES9_E
   fun:_ZN5boost6python6detail17make_function_auxIMN3psi6MatrixEFdRKNS0_5tupleEENS0_21default_call_policiesENS_3mpl7vector3IdRS4_S7_EEN4mpl_4int_ILi0EEEEENS0_3api6objectET_RKT0_RKT1_RKSt4pairIPKNS1_7keywordESU_ET2_
   fun:_ZN5boost6python6class_IN3psi6MatrixENS_10shared_ptrIS3_EENS0_6detail13not_specifiedES7_E8def_implIS3_MS3_FdRKNS0_5tupleEENS6_10def_helperIPKcS7_S7_S7_EEEEvPT_SH_T0_RKT1_z
   fun:_Z12export_mintsv
   fun:_Z18init_module_PsiModv
   fun:_ZN5boost6python21handle_exception_implENS_9function0IvEE
   fun:_ZN5boost6python16handle_exceptionIPFvvEEEbT_
   fun:_ZN5boost6python6detail11init_moduleEPKcPFvvE
   fun:_PyImport_FixupExtension
   fun:_PyImport_FixupExtension
}
{
   Boost Python memort leak
   Memcheck:Leak
   fun:malloc
   fun:_Znwm
   fun:_ZN5boost6python7objects15function_objectERKNS1_11py_functionERKSt4pairIPKNS0_6detail7keywordES9_E
   fun:_ZN5boost6python6detail17make_function_auxIMN3psi6MatrixEFvRKNS0_5tupleEdENS0_21default_call_policiesENS_3mpl7vector4IvRS4_S7_dEEN4mpl_4int_ILi0EEEEENS0_3api6objectET_RKT0_RKT1_RKSt4pairIPKNS1_7keywordESU_ET2_
   fun:_ZN5boost6python6class_IN3psi6MatrixENS_10shared_ptrIS3_EENS0_6detail13not_specifiedES7_E8def_implIS3_MS3_FvRKNS0_5tupleEdENS6_10def_helperIPKcS7_S7_S7_EEEEvPT_SH_T0_RKT1_z
   fun:_Z12export_mintsv
   fun:_Z18init_module_PsiModv
   fun:_ZN5boost6python21handle_exception_implENS_9function0IvEE
   fun:_ZN5boost6python16handle_exceptionIPFvvEEEbT_
   fun:_ZN5boost6python6detail11init_moduleEPKcPFvvE
   fun:_PyImport_FixupExtension
   fun:_PyImport_FixupExtension
}
{
   Boost Python memort leak
   Memcheck:Leak
   fun:malloc
   fun:_Znwm
   fun:_ZN5boost6python7objects15function_objectERKNS1_11py_functionERKSt4pairIPKNS0_6detail7keywordES9_E
   fun:_ZN5boost6python6detail17make_function_auxIMN3psi6MatrixEFvRKSsbbbENS0_21default_call_policiesENS_3mpl7vector6IvRS4_S6_bbbEEN4mpl_4int_ILi0EEEEENS0_3api6objectET_RKT0_RKT1_RKSt4pairIPKNS1_7keywordEST_ET2_
   fun:_ZN5boost6python6class_IN3psi6MatrixENS_10shared_ptrIS3_EENS0_6detail13not_specifiedES7_E8def_implIS3_MS3_FvRKSsbbbENS6_10def_helperIPKcS7_S7_S7_EEEEvPT_SG_T0_RKT1_z
   fun:_Z12export_mintsv
   fun:_Z18init_module_PsiModv
   fun:_ZN5boost6python21handle_exception_implENS_9function0IvEE
   fun:_ZN5boost6python16handle_exceptionIPFvvEEEbT_
   fun:_ZN5boost6python6detail11init_moduleEPKcPFvvE
   fun:_PyImport_FixupExtension
   fun:_PyImport_FixupExtension
}
{
   Boost Python memort leak
   Memcheck:Leak
   fun:malloc
   fun:_Znwm
   fun:_ZN5boost6python7objects15function_objectERKNS1_11py_functionERKSt4pairIPKNS0_6detail7keywordES9_E
   fun:_ZN5boost6python6detail17make_function_auxIMN3psi6MatrixEFvRKSsENS0_21default_call_policiesENS_3mpl7vector3IvRS4_S6_EEN4mpl_4int_ILi0EEEEENS0_3api6objectET_RKT0_RKT1_RKSt4pairIPKNS1_7keywordEST_ET2_
   fun:_ZN5boost6python6class_IN3psi6MatrixENS_10shared_ptrIS3_EENS0_6detail13not_specifiedES7_E8def_implIS3_MS3_FvRKSsENS6_10def_helperIPKcS7_S7_S7_EEEEvPT_SG_T0_RKT1_z
   fun:_Z12export_mintsv
   fun:_Z18init_module_PsiModv
   fun:_ZN5boost6python21handle_exception_implENS_9function0IvEE
   fun:_ZN5boost6python16handle_exceptionIPFvvEEEbT_
   fun:_ZN5boost6python6detail11init_moduleEPKcPFvvE
   fun:_PyImport_FixupExtension
   fun:_PyImport_FixupExtension
}
{
   Boost Python memort leak
   Memcheck:Leak
   fun:malloc
   fun:_Znwm
   fun:_ZN5boost6python7objects15function_objectERKNS1_11py_functionERKSt4pairIPKNS0_6detail7keywordES9_E
   fun:_ZN5boost6python6detail17make_function_auxIPFvP7_objectENS0_21default_call_policiesENS_3mpl7vector2IvS4_EEN4mpl_4int_ILi0EEEEENS0_3api6objectET_RKT0_RKT1_RKSt4pairIPKNS1_7keywordESQ_ET2_
   fun:_ZN5boost6python6detail12def_init_auxINS0_6class_IN3psi11MintsHelperENS_10shared_ptrIS5_EENS1_13not_specifiedES8_EENS0_21default_call_policiesENS_3mpl7vector0IN4mpl_2naEEENSB_4sizeISF_EEEEvRT_RKT1_T2_RKT0_PKcRKSt4pairIPKNS1_7keywordESW_E
   fun:_ZN5boost6python6class_IN3psi11MintsHelperENS_10shared_ptrIS3_EENS0_6detail13not_specifiedES7_EC2EPKcSA_
   fun:_Z12export_mintsv
   fun:_Z18init_module_PsiModv
   fun:_ZN5boost6python21handle_exception_implENS_9function0IvEE
   fun:_ZN5boost6python16handle_exceptionIPFvvEEEbT_
   fun:_ZN5boost6python6detail11init_moduleEPKcPFvvE
   fun:_PyImport_FixupExtension
}
{
   Boost Python memort leak
   Memcheck:Leak
   fun:malloc
   fun:_Znwm
   fun:_ZN5boost6python7objects15function_objectERKNS1_11py_functionERKSt4pairIPKNS0_6detail7keywordES9_E
   fun:_ZN5boost6python6detail17make_function_auxIMN3psi11MintsHelperEKFNS_10shared_ptrINS3_8BasisSetEEEvENS0_21default_call_policiesENS_3mpl7vector2IS7_RS4_EEN4mpl_4int_ILi0EEEEENS0_3api6objectET_RKT0_RKT1_RKSt4pairIPKNS1_7keywordESU_ET2_
   fun:_ZN5boost6python6class_IN3psi11MintsHelperENS_10shared_ptrIS3_EENS0_6detail13not_specifiedES7_E8def_implIS3_MS3_KFNS4_INS2_8BasisSetEEEvENS6_10def_helperIPKcS7_S7_S7_EEEEvPT_SG_T0_RKT1_z
   fun:_Z12export_mintsv
   fun:_Z18init_module_PsiModv
   fun:_ZN5boost6python21handle_exception_implENS_9function0IvEE
   fun:_ZN5boost6python16handle_exceptionIPFvvEEEbT_
   fun:_ZN5boost6python6detail11init_moduleEPKcPFvvE
   fun:_PyImport_FixupExtension
   fun:_PyImport_FixupExtension
}
{
   Boost Python memort leak
   Memcheck:Leak
   fun:malloc
   fun:_Znwm
   fun:_ZN5boost6python7objects15function_objectERKNS1_11py_functionERKSt4pairIPKNS0_6detail7keywordES9_E
   fun:_ZN5boost6python6detail17make_function_auxIMN3psi11MintsHelperEKFNS_10shared_ptrINS3_10SOBasisSetEEEvENS0_21default_call_policiesENS_3mpl7vector2IS7_RS4_EEN4mpl_4int_ILi0EEEEENS0_3api6objectET_RKT0_RKT1_RKSt4pairIPKNS1_7keywordESU_ET2_
   fun:_ZN5boost6python6class_IN3psi11MintsHelperENS_10shared_ptrIS3_EENS0_6detail13not_specifiedES7_E8def_implIS3_MS3_KFNS4_INS2_10SOBasisSetEEEvENS6_10def_helperIPKcS7_S7_S7_EEEEvPT_SG_T0_RKT1_z
   fun:_Z12export_mintsv
   fun:_Z18init_module_PsiModv
   fun:_ZN5boost6python21handle_exception_implENS_9function0IvEE
   fun:_ZN5boost6python16handle_exceptionIPFvvEEEbT_
   fun:_ZN5boost6python6detail11init_moduleEPKcPFvvE
   fun:_PyImport_FixupExtension
   fun:_PyImport_FixupExtension
}
{
   Boost Python memort leak
   Memcheck:Leak
   fun:malloc
   fun:_Znwm
   fun:_ZN5boost6python7objects15function_objectERKNS1_11py_functionERKSt4pairIPKNS0_6detail7keywordES9_E
   fun:_ZN5boost6python6detail17make_function_auxIMN3psi11MintsHelperEKFNS_10shared_ptrINS3_13MatrixFactoryEEEvENS0_21default_call_policiesENS_3mpl7vector2IS7_RS4_EEN4mpl_4int_ILi0EEEEENS0_3api6objectET_RKT0_RKT1_RKSt4pairIPKNS1_7keywordESU_ET2_
   fun:_ZN5boost6python6class_IN3psi11MintsHelperENS_10shared_ptrIS3_EENS0_6detail13not_specifiedES7_E8def_implIS3_MS3_KFNS4_INS2_13MatrixFactoryEEEvENS6_10def_helperIPKcS7_S7_S7_EEEEvPT_SG_T0_RKT1_z
   fun:_Z12export_mintsv
   fun:_Z18init_module_PsiModv
   fun:_ZN5boost6python21handle_exception_implENS_9function0IvEE
   fun:_ZN5boost6python16handle_exceptionIPFvvEEEbT_
   fun:_ZN5boost6python6detail11init_moduleEPKcPFvvE
   fun:_PyImport_FixupExtension
   fun:_PyImport_FixupExtension
}
{
   Boost Python memort leak
   Memcheck:Leak
   fun:malloc
   fun:_Znwm
   fun:_ZN5boost6python7objects15function_objectERKNS1_11py_functionERKSt4pairIPKNS0_6detail7keywordES9_E
   fun:_ZN5boost6python6detail17make_function_auxIMN3psi11MintsHelperEFNS_10shared_ptrINS3_6MatrixEEEvENS0_21default_call_policiesENS_3mpl7vector2IS7_RS4_EEN4mpl_4int_ILi0EEEEENS0_3api6objectET_RKT0_RKT1_RKSt4pairIPKNS1_7keywordESU_ET2_
   fun:_ZN5boost6python6class_IN3psi11MintsHelperENS_10shared_ptrIS3_EENS0_6detail13not_specifiedES7_E8def_implIS3_MS3_FNS4_INS2_6MatrixEEEvENS6_10def_helperIPKcS7_S7_S7_EEEEvPT_SG_T0_RKT1_z
   fun:_Z12export_mintsv
   fun:_Z18init_module_PsiModv
   fun:_ZN5boost6python21handle_exception_implENS_9function0IvEE
   fun:_ZN5boost6python16handle_exceptionIPFvvEEEbT_
   fun:_ZN5boost6python6detail11init_moduleEPKcPFvvE
   fun:_PyImport_FixupExtension
   fun:_PyImport_FixupExtension
}
{
   Boost Python memort leak
   Memcheck:Leak
   fun:malloc
   fun:_Znwm
   fun:_ZN5boost6python7objects15function_objectERKNS1_11py_functionERKSt4pairIPKNS0_6detail7keywordES9_E
   fun:_ZN5boost6python6detail17make_function_auxIMN3psi11MintsHelperEFNS_10shared_ptrINS3_6MatrixEEEvENS0_21default_call_policiesENS_3mpl7vector2IS7_RS4_EEN4mpl_4int_ILi0EEEEENS0_3api6objectET_RKT0_RKT1_RKSt4pairIPKNS1_7keywordESU_ET2_
   fun:_ZN5boost6python6class_IN3psi11MintsHelperENS_10shared_ptrIS3_EENS0_6detail13not_specifiedES7_E8def_implIS3_MS3_FNS4_INS2_6MatrixEEEvENS6_10def_helperIPKcS7_S7_S7_EEEEvPT_SG_T0_RKT1_z
   fun:_Z12export_mintsv
   fun:_Z18init_module_PsiModv
   fun:_ZN5boost6python21handle_exception_implENS_9function0IvEE
   fun:_ZN5boost6python16handle_exceptionIPFvvEEEbT_
   fun:_ZN5boost6python6detail11init_moduleEPKcPFvvE
   fun:_PyImport_FixupExtension
   fun:_PyImport_FixupExtension
}
{
   Boost Python memort leak
   Memcheck:Leak
   fun:malloc
   fun:_Znwm
   fun:_ZN5boost6python7objects15function_objectERKNS1_11py_functionERKSt4pairIPKNS0_6detail7keywordES9_E
   fun:_ZN5boost6python6detail17make_function_auxIMN3psi11MintsHelperEFNS_10shared_ptrINS3_6MatrixEEEvENS0_21default_call_policiesENS_3mpl7vector2IS7_RS4_EEN4mpl_4int_ILi0EEEEENS0_3api6objectET_RKT0_RKT1_RKSt4pairIPKNS1_7keywordESU_ET2_
   fun:_ZN5boost6python6class_IN3psi11MintsHelperENS_10shared_ptrIS3_EENS0_6detail13not_specifiedES7_E8def_implIS3_MS3_FNS4_INS2_6MatrixEEEvENS6_10def_helperIPKcS7_S7_S7_EEEEvPT_SG_T0_RKT1_z
   fun:_Z12export_mintsv
   fun:_Z18init_module_PsiModv
   fun:_ZN5boost6python21handle_exception_implENS_9function0IvEE
   fun:_ZN5boost6python16handle_exceptionIPFvvEEEbT_
   fun:_ZN5boost6python6detail11init_moduleEPKcPFvvE
   fun:_PyImport_FixupExtension
   fun:_PyImport_FixupExtension
}
{
   Boost Python memort leak
   Memcheck:Leak
   fun:malloc
   fun:_Znwm
   fun:_ZN5boost6python7objects15function_objectERKNS1_11py_functionERKSt4pairIPKNS0_6detail7keywordES9_E
   fun:_ZN5boost6python6detail17make_function_auxIMN3psi11MintsHelperEFvvENS0_21default_call_policiesENS_3mpl7vector2IvRS4_EEN4mpl_4int_ILi0EEEEENS0_3api6objectET_RKT0_RKT1_RKSt4pairIPKNS1_7keywordESR_ET2_
   fun:_ZN5boost6python6class_IN3psi11MintsHelperENS_10shared_ptrIS3_EENS0_6detail13not_specifiedES7_E8def_implIS3_MS3_FvvENS6_10def_helperIPKcS7_S7_S7_EEEEvPT_SE_T0_RKT1_z
   fun:_Z12export_mintsv
   fun:_Z18init_module_PsiModv
   fun:_ZN5boost6python21handle_exception_implENS_9function0IvEE
   fun:_ZN5boost6python16handle_exceptionIPFvvEEEbT_
   fun:_ZN5boost6python6detail11init_moduleEPKcPFvvE
   fun:_PyImport_FixupExtension
   fun:_PyImport_FixupExtension
}
{
   Boost Python memort leak
   Memcheck:Leak
   fun:malloc
   fun:_Znwm
   fun:_ZN5boost6python7objects15function_objectERKNS1_11py_functionERKSt4pairIPKNS0_6detail7keywordES9_E
   fun:_ZN5boost6python6detail17make_function_auxIMN3psi11MintsHelperEFNS_10shared_ptrINS3_6MatrixEEEvENS0_21default_call_policiesENS_3mpl7vector2IS7_RS4_EEN4mpl_4int_ILi0EEEEENS0_3api6objectET_RKT0_RKT1_RKSt4pairIPKNS1_7keywordESU_ET2_
   fun:_ZN5boost6python6class_IN3psi11MintsHelperENS_10shared_ptrIS3_EENS0_6detail13not_specifiedES7_E8def_implIS3_MS3_FNS4_INS2_6MatrixEEEvENS6_10def_helperIPKcS7_S7_S7_EEEEvPT_SG_T0_RKT1_z
   fun:_Z12export_mintsv
   fun:_Z18init_module_PsiModv
   fun:_ZN5boost6python21handle_exception_implENS_9function0IvEE
   fun:_ZN5boost6python16handle_exceptionIPFvvEEEbT_
   fun:_ZN5boost6python6detail11init_moduleEPKcPFvvE
   fun:_PyImport_FixupExtension
   fun:_PyImport_FixupExtension
}
{
   Boost Python memort leak
   Memcheck:Leak
   fun:malloc
   fun:_Znwm
   fun:_ZN5boost6python7objects15function_objectERKNS1_11py_functionERKSt4pairIPKNS0_6detail7keywordES9_E
   fun:_ZN5boost6python6detail17make_function_auxIMN3psi11MintsHelperEFNS_10shared_ptrINS3_6MatrixEEEvENS0_21default_call_policiesENS_3mpl7vector2IS7_RS4_EEN4mpl_4int_ILi0EEEEENS0_3api6objectET_RKT0_RKT1_RKSt4pairIPKNS1_7keywordESU_ET2_
   fun:_ZN5boost6python6class_IN3psi11MintsHelperENS_10shared_ptrIS3_EENS0_6detail13not_specifiedES7_E8def_implIS3_MS3_FNS4_INS2_6MatrixEEEvENS6_10def_helperIPKcS7_S7_S7_EEEEvPT_SG_T0_RKT1_z
   fun:_Z12export_mintsv
   fun:_Z18init_module_PsiModv
   fun:_ZN5boost6python21handle_exception_implENS_9function0IvEE
   fun:_ZN5boost6python16handle_exceptionIPFvvEEEbT_
   fun:_ZN5boost6python6detail11init_moduleEPKcPFvvE
   fun:_PyImport_FixupExtension
   fun:_PyImport_FixupExtension
}
{
   Boost Python memort leak
   Memcheck:Leak
   fun:malloc
   fun:_Znwm
   fun:_ZN5boost6python7objects15function_objectERKNS1_11py_functionERKSt4pairIPKNS0_6detail7keywordES9_E
   fun:_ZN5boost6python6detail17make_function_auxIMN3psi11MintsHelperEFNS_10shared_ptrINS3_6MatrixEEEvENS0_21default_call_policiesENS_3mpl7vector2IS7_RS4_EEN4mpl_4int_ILi0EEEEENS0_3api6objectET_RKT0_RKT1_RKSt4pairIPKNS1_7keywordESU_ET2_
   fun:_ZN5boost6python6class_IN3psi11MintsHelperENS_10shared_ptrIS3_EENS0_6detail13not_specifiedES7_E8def_implIS3_MS3_FNS4_INS2_6MatrixEEEvENS6_10def_helperIPKcS7_S7_S7_EEEEvPT_SG_T0_RKT1_z
   fun:_Z12export_mintsv
   fun:_Z18init_module_PsiModv
   fun:_ZN5boost6python21handle_exception_implENS_9function0IvEE
   fun:_ZN5boost6python16handle_exceptionIPFvvEEEbT_
   fun:_ZN5boost6python6detail11init_moduleEPKcPFvvE
   fun:_PyImport_FixupExtension
   fun:_PyImport_FixupExtension
}
{
   Boost Python memort leak
   Memcheck:Leak
   fun:malloc
   fun:_Znwm
   fun:_ZN5boost6python7objects15function_objectERKNS1_11py_functionERKSt4pairIPKNS0_6detail7keywordES9_E
   fun:_ZN5boost6python6detail17make_function_auxIMN3psi11MintsHelperEFSt6vectorINS_10shared_ptrINS3_6MatrixEEESaIS8_EEvENS0_21default_call_policiesENS_3mpl7vector2ISA_RS4_EEN4mpl_4int_ILi0EEEEENS0_3api6objectET_RKT0_RKT1_RKSt4pairIPKNS1_7keywordESX_ET2_
   fun:_ZN5boost6python6class_IN3psi11MintsHelperENS_10shared_ptrIS3_EENS0_6detail13not_specifiedES7_E8def_implIS3_MS3_FSt6vectorINS4_INS2_6MatrixEEESaISC_EEvENS6_10def_helperIPKcS7_S7_S7_EEEEvPT_SJ_T0_RKT1_z
   fun:_Z12export_mintsv
   fun:_Z18init_module_PsiModv
   fun:_ZN5boost6python21handle_exception_implENS_9function0IvEE
   fun:_ZN5boost6python16handle_exceptionIPFvvEEEbT_
   fun:_ZN5boost6python6detail11init_moduleEPKcPFvvE
   fun:_PyImport_FixupExtension
   fun:_PyImport_FixupExtension
}
{
   Boost Python memort leak
   Memcheck:Leak
   fun:malloc
   fun:_Znwm
   fun:_ZN5boost6python7objects15function_objectERKNS1_11py_functionERKSt4pairIPKNS0_6detail7keywordES9_E
   fun:_ZN5boost6python6detail17make_function_auxIMN3psi11MintsHelperEFSt6vectorINS_10shared_ptrINS3_6MatrixEEESaIS8_EEvENS0_21default_call_policiesENS_3mpl7vector2ISA_RS4_EEN4mpl_4int_ILi0EEEEENS0_3api6objectET_RKT0_RKT1_RKSt4pairIPKNS1_7keywordESX_ET2_
   fun:_ZN5boost6python6class_IN3psi11MintsHelperENS_10shared_ptrIS3_EENS0_6detail13not_specifiedES7_E8def_implIS3_MS3_FSt6vectorINS4_INS2_6MatrixEEESaISC_EEvENS6_10def_helperIPKcS7_S7_S7_EEEEvPT_SJ_T0_RKT1_z
   fun:_Z12export_mintsv
   fun:_Z18init_module_PsiModv
   fun:_ZN5boost6python21handle_exception_implENS_9function0IvEE
   fun:_ZN5boost6python16handle_exceptionIPFvvEEEbT_
   fun:_ZN5boost6python6detail11init_moduleEPKcPFvvE
   fun:_PyImport_FixupExtension
   fun:_PyImport_FixupExtension
}
{
   Boost Python memort leak
   Memcheck:Leak
   fun:malloc
   fun:_Znwm
   fun:_ZN5boost6python7objects15function_objectERKNS1_11py_functionERKSt4pairIPKNS0_6detail7keywordES9_E
   fun:_ZN5boost6python6detail17make_function_auxIMN3psi11MintsHelperEFSt6vectorINS_10shared_ptrINS3_6MatrixEEESaIS8_EEvENS0_21default_call_policiesENS_3mpl7vector2ISA_RS4_EEN4mpl_4int_ILi0EEEEENS0_3api6objectET_RKT0_RKT1_RKSt4pairIPKNS1_7keywordESX_ET2_
   fun:_ZN5boost6python6class_IN3psi11MintsHelperENS_10shared_ptrIS3_EENS0_6detail13not_specifiedES7_E8def_implIS3_MS3_FSt6vectorINS4_INS2_6MatrixEEESaISC_EEvENS6_10def_helperIPKcS7_S7_S7_EEEEvPT_SJ_T0_RKT1_z
   fun:_Z12export_mintsv
   fun:_Z18init_module_PsiModv
   fun:_ZN5boost6python21handle_exception_implENS_9function0IvEE
   fun:_ZN5boost6python16handle_exceptionIPFvvEEEbT_
   fun:_ZN5boost6python6detail11init_moduleEPKcPFvvE
   fun:_PyImport_FixupExtension
   fun:_PyImport_FixupExtension
}
{
   Boost Python memort leak
   Memcheck:Leak
   fun:malloc
   fun:_Znwm
   fun:_ZN5boost6python7objects15function_objectERKNS1_11py_functionERKSt4pairIPKNS0_6detail7keywordES9_E
   fun:_ZN5boost6python6detail17make_function_auxIMN3psi11MintsHelperEFSt6vectorINS_10shared_ptrINS3_6MatrixEEESaIS8_EEvENS0_21default_call_policiesENS_3mpl7vector2ISA_RS4_EEN4mpl_4int_ILi0EEEEENS0_3api6objectET_RKT0_RKT1_RKSt4pairIPKNS1_7keywordESX_ET2_
   fun:_ZN5boost6python6class_IN3psi11MintsHelperENS_10shared_ptrIS3_EENS0_6detail13not_specifiedES7_E8def_implIS3_MS3_FSt6vectorINS4_INS2_6MatrixEEESaISC_EEvENS6_10def_helperIPKcS7_S7_S7_EEEEvPT_SJ_T0_RKT1_z
   fun:_Z12export_mintsv
   fun:_Z18init_module_PsiModv
   fun:_ZN5boost6python21handle_exception_implENS_9function0IvEE
   fun:_ZN5boost6python16handle_exceptionIPFvvEEEbT_
   fun:_ZN5boost6python6detail11init_moduleEPKcPFvvE
   fun:_PyImport_FixupExtension
   fun:_PyImport_FixupExtension
}
{
   Boost Python memort leak
   Memcheck:Leak
   fun:malloc
   fun:_Znwm
   fun:_ZN5boost6python7objects15function_objectERKNS1_11py_functionERKSt4pairIPKNS0_6detail7keywordES9_E
   fun:_ZN5boost6python6detail17make_function_auxIMN3psi11MintsHelperEFSt6vectorINS_10shared_ptrINS3_6MatrixEEESaIS8_EEvENS0_21default_call_policiesENS_3mpl7vector2ISA_RS4_EEN4mpl_4int_ILi0EEEEENS0_3api6objectET_RKT0_RKT1_RKSt4pairIPKNS1_7keywordESX_ET2_
   fun:_ZN5boost6python6class_IN3psi11MintsHelperENS_10shared_ptrIS3_EENS0_6detail13not_specifiedES7_E8def_implIS3_MS3_FSt6vectorINS4_INS2_6MatrixEEESaISC_EEvENS6_10def_helperIPKcS7_S7_S7_EEEEvPT_SJ_T0_RKT1_z
   fun:_Z12export_mintsv
   fun:_Z18init_module_PsiModv
   fun:_ZN5boost6python21handle_exception_implENS_9function0IvEE
   fun:_ZN5boost6python16handle_exceptionIPFvvEEEbT_
   fun:_ZN5boost6python6detail11init_moduleEPKcPFvvE
   fun:_PyImport_FixupExtension
   fun:_PyImport_FixupExtension
}
{
   Boost Python memort leak
   Memcheck:Leak
   fun:malloc
   fun:_Znwm
   fun:_ZN5boost6python7objects15function_objectERKNS1_11py_functionERKSt4pairIPKNS0_6detail7keywordES9_E
   fun:_ZN5boost6python6detail17make_function_auxIMN3psi11MintsHelperEFSt6vectorINS_10shared_ptrINS3_6MatrixEEESaIS8_EEvENS0_21default_call_policiesENS_3mpl7vector2ISA_RS4_EEN4mpl_4int_ILi0EEEEENS0_3api6objectET_RKT0_RKT1_RKSt4pairIPKNS1_7keywordESX_ET2_
   fun:_ZN5boost6python6class_IN3psi11MintsHelperENS_10shared_ptrIS3_EENS0_6detail13not_specifiedES7_E8def_implIS3_MS3_FSt6vectorINS4_INS2_6MatrixEEESaISC_EEvENS6_10def_helperIPKcS7_S7_S7_EEEEvPT_SJ_T0_RKT1_z
   fun:_Z12export_mintsv
   fun:_Z18init_module_PsiModv
   fun:_ZN5boost6python21handle_exception_implENS_9function0IvEE
   fun:_ZN5boost6python16handle_exceptionIPFvvEEEbT_
   fun:_ZN5boost6python6detail11init_moduleEPKcPFvvE
   fun:_PyImport_FixupExtension
   fun:_PyImport_FixupExtension
}
{
   Boost Python memort leak
   Memcheck:Leak
   fun:malloc
   fun:_Znwm
   fun:_ZN5boost6python7objects15function_objectERKNS1_11py_functionERKSt4pairIPKNS0_6detail7keywordES9_E
   fun:_ZN5boost6python6detail17make_function_auxIMN3psi11MintsHelperEFSt6vectorINS_10shared_ptrINS3_6MatrixEEESaIS8_EEvENS0_21default_call_policiesENS_3mpl7vector2ISA_RS4_EEN4mpl_4int_ILi0EEEEENS0_3api6objectET_RKT0_RKT1_RKSt4pairIPKNS1_7keywordESX_ET2_
   fun:_ZN5boost6python6class_IN3psi11MintsHelperENS_10shared_ptrIS3_EENS0_6detail13not_specifiedES7_E8def_implIS3_MS3_FSt6vectorINS4_INS2_6MatrixEEESaISC_EEvENS6_10def_helperIPKcS7_S7_S7_EEEEvPT_SJ_T0_RKT1_z
   fun:_Z12export_mintsv
   fun:_Z18init_module_PsiModv
   fun:_ZN5boost6python21handle_exception_implENS_9function0IvEE
   fun:_ZN5boost6python16handle_exceptionIPFvvEEEbT_
   fun:_ZN5boost6python6detail11init_moduleEPKcPFvvE
   fun:_PyImport_FixupExtension
   fun:_PyImport_FixupExtension
}
{
   Boost Python memort leak
   Memcheck:Leak
   fun:malloc
   fun:_Znwm
   fun:_ZN5boost6python7objects15function_objectERKNS1_11py_functionERKSt4pairIPKNS0_6detail7keywordES9_E
   fun:_ZN5boost6python6detail17make_function_auxIMN3psi11MintsHelperEFNS_10shared_ptrINS3_6MatrixEEEvENS0_21default_call_policiesENS_3mpl7vector2IS7_RS4_EEN4mpl_4int_ILi0EEEEENS0_3api6objectET_RKT0_RKT1_RKSt4pairIPKNS1_7keywordESU_ET2_
   fun:_ZN5boost6python6class_IN3psi11MintsHelperENS_10shared_ptrIS3_EENS0_6detail13not_specifiedES7_E8def_implIS3_MS3_FNS4_INS2_6MatrixEEEvENS6_10def_helperIPKcS7_S7_S7_EEEEvPT_SG_T0_RKT1_z
   fun:_Z12export_mintsv
   fun:_Z18init_module_PsiModv
   fun:_ZN5boost6python21handle_exception_implENS_9function0IvEE
   fun:_ZN5boost6python16handle_exceptionIPFvvEEEbT_
   fun:_ZN5boost6python6detail11init_moduleEPKcPFvvE
   fun:_PyImport_FixupExtension
   fun:_PyImport_FixupExtension
}
{
   Boost Python memort leak
   Memcheck:Leak
   fun:malloc
   fun:_Znwm
   fun:_ZN5boost6python7objects15function_objectERKNS1_11py_functionERKSt4pairIPKNS0_6detail7keywordES9_E
   fun:_ZN5boost6python6detail17make_function_auxIMN3psi11MintsHelperEFNS_10shared_ptrINS3_6MatrixEEEdENS0_21default_call_policiesENS_3mpl7vector3IS7_RS4_dEEN4mpl_4int_ILi0EEEEENS0_3api6objectET_RKT0_RKT1_RKSt4pairIPKNS1_7keywordESU_ET2_
   fun:_ZN5boost6python6class_IN3psi11MintsHelperENS_10shared_ptrIS3_EENS0_6detail13not_specifiedES7_E8def_implIS3_MS3_FNS4_INS2_6MatrixEEEdENS6_10def_helperIPKcS7_S7_S7_EEEEvPT_SG_T0_RKT1_z
   fun:_Z12export_mintsv
   fun:_Z18init_module_PsiModv
   fun:_ZN5boost6python21handle_exception_implENS_9function0IvEE
   fun:_ZN5boost6python16handle_exceptionIPFvvEEEbT_
   fun:_ZN5boost6python6detail11init_moduleEPKcPFvvE
   fun:_PyImport_FixupExtension
   fun:_PyImport_FixupExtension
}
{
   Boost Python memort leak
   Memcheck:Leak
   fun:malloc
   fun:_Znwm
   fun:_ZN5boost6python7objects15function_objectERKNS1_11py_functionERKSt4pairIPKNS0_6detail7keywordES9_E
   fun:_ZN5boost6python6detail17make_function_auxIMN3psi11MintsHelperEFNS_10shared_ptrINS3_10CdSalcListEEEibbENS0_21default_call_policiesENS_3mpl7vector5IS7_RS4_ibbEEN4mpl_4int_ILi0EEEEENS0_3api6objectET_RKT0_RKT1_RKSt4pairIPKNS1_7keywordESU_ET2_
   fun:_ZN5boost6python6class_IN3psi11MintsHelperENS_10shared_ptrIS3_EENS0_6detail13not_specifiedES7_E8def_implIS3_MS3_FNS4_INS2_10CdSalcListEEEibbENS6_10def_helperIPKcS7_S7_S7_EEEEvPT_SG_T0_RKT1_z
   fun:_Z12export_mintsv
   fun:_Z18init_module_PsiModv
   fun:_ZN5boost6python21handle_exception_implENS_9function0IvEE
   fun:_ZN5boost6python16handle_exceptionIPFvvEEEbT_
   fun:_ZN5boost6python6detail11init_moduleEPKcPFvvE
   fun:_PyImport_FixupExtension
   fun:_PyImport_FixupExtension
}
{
   Boost Python memort leak
   Memcheck:Leak
   fun:malloc
   fun:_Znwm
   fun:_ZN5boost6python7objects15function_objectERKNS1_11py_functionERKSt4pairIPKNS0_6detail7keywordES9_E
   fun:_ZN5boost6python6detail17make_function_auxIMN3psi11MintsHelperEFvvENS0_21default_call_policiesENS_3mpl7vector2IvRS4_EEN4mpl_4int_ILi0EEEEENS0_3api6objectET_RKT0_RKT1_RKSt4pairIPKNS1_7keywordESR_ET2_
   fun:_ZN5boost6python6class_IN3psi11MintsHelperENS_10shared_ptrIS3_EENS0_6detail13not_specifiedES7_E8def_implIS3_MS3_FvvENS6_10def_helperIPKcS7_S7_S7_EEEEvPT_SE_T0_RKT1_z
   fun:_Z12export_mintsv
   fun:_Z18init_module_PsiModv
   fun:_ZN5boost6python21handle_exception_implENS_9function0IvEE
   fun:_ZN5boost6python16handle_exceptionIPFvvEEEbT_
   fun:_ZN5boost6python6detail11init_moduleEPKcPFvvE
   fun:_PyImport_FixupExtension
   fun:_PyImport_FixupExtension
}
{
   Boost Python memort leak
   Memcheck:Leak
   fun:malloc
   fun:_Znwm
   fun:_ZN5boost6python7objects15function_objectERKNS1_11py_functionERKSt4pairIPKNS0_6detail7keywordES9_E
   fun:_ZN5boost6python6detail17make_function_auxIPFvP7_objectENS0_21default_call_policiesENS_3mpl7vector2IvS4_EEN4mpl_4int_ILi0EEEEENS0_3api6objectET_RKT0_RKT1_RKSt4pairIPKNS1_7keywordESQ_ET2_
   fun:_ZN5boost6python6detail12def_init_auxINS0_6class_IN3psi13FittingMetricENS_10shared_ptrIS5_EENS1_13not_specifiedES8_EENS0_21default_call_policiesENS_3mpl7vector0IN4mpl_2naEEENSB_4sizeISF_EEEEvRT_RKT1_T2_RKT0_PKcRKSt4pairIPKNS1_7keywordESW_E
   fun:_ZN5boost6python6class_IN3psi13FittingMetricENS_10shared_ptrIS3_EENS0_6detail13not_specifiedES7_EC2EPKcSA_
   fun:_Z12export_mintsv
   fun:_Z18init_module_PsiModv
   fun:_ZN5boost6python21handle_exception_implENS_9function0IvEE
   fun:_ZN5boost6python16handle_exceptionIPFvvEEEbT_
   fun:_ZN5boost6python6detail11init_moduleEPKcPFvvE
   fun:_PyImport_FixupExtension
}
{
   Boost Python memort leak
   Memcheck:Leak
   fun:malloc
   fun:_Znwm
   fun:_ZN5boost6python7objects15function_objectERKNS1_11py_functionERKSt4pairIPKNS0_6detail7keywordES9_E
   fun:_ZN5boost6python6detail17make_function_auxIMN3psi13FittingMetricEKFSsvENS0_21default_call_policiesENS_3mpl7vector2ISsRS4_EEN4mpl_4int_ILi0EEEEENS0_3api6objectET_RKT0_RKT1_RKSt4pairIPKNS1_7keywordESR_ET2_
   fun:_ZN5boost6python6class_IN3psi13FittingMetricENS_10shared_ptrIS3_EENS0_6detail13not_specifiedES7_E8def_implIS3_MS3_KFSsvENS6_10def_helperIPKcS7_S7_S7_EEEEvPT_SE_T0_RKT1_z
   fun:_Z12export_mintsv
   fun:_Z18init_module_PsiModv
   fun:_ZN5boost6python21handle_exception_implENS_9function0IvEE
   fun:_ZN5boost6python16handle_exceptionIPFvvEEEbT_
   fun:_ZN5boost6python6detail11init_moduleEPKcPFvvE
   fun:_PyImport_FixupExtension
   fun:_PyImport_FixupExtension
}
{
   Boost Python memort leak
   Memcheck:Leak
   fun:malloc
   fun:_Znwm
   fun:_ZN5boost6python7objects15function_objectERKNS1_11py_functionERKSt4pairIPKNS0_6detail7keywordES9_E
   fun:_ZN5boost6python6detail17make_function_auxIMN3psi13FittingMetricEKFbvENS0_21default_call_policiesENS_3mpl7vector2IbRS4_EEN4mpl_4int_ILi0EEEEENS0_3api6objectET_RKT0_RKT1_RKSt4pairIPKNS1_7keywordESR_ET2_
   fun:_ZN5boost6python6class_IN3psi13FittingMetricENS_10shared_ptrIS3_EENS0_6detail13not_specifiedES7_E8def_implIS3_MS3_KFbvENS6_10def_helperIPKcS7_S7_S7_EEEEvPT_SE_T0_RKT1_z
   fun:_Z12export_mintsv
   fun:_Z18init_module_PsiModv
   fun:_ZN5boost6python21handle_exception_implENS_9function0IvEE
   fun:_ZN5boost6python16handle_exceptionIPFvvEEEbT_
   fun:_ZN5boost6python6detail11init_moduleEPKcPFvvE
   fun:_PyImport_FixupExtension
   fun:_PyImport_FixupExtension
}
{
   Boost Python memort leak
   Memcheck:Leak
   fun:malloc
   fun:_Znwm
   fun:_ZN5boost6python7objects15function_objectERKNS1_11py_functionERKSt4pairIPKNS0_6detail7keywordES9_E
   fun:_ZN5boost6python6detail17make_function_auxIMN3psi13FittingMetricEKFbvENS0_21default_call_policiesENS_3mpl7vector2IbRS4_EEN4mpl_4int_ILi0EEEEENS0_3api6objectET_RKT0_RKT1_RKSt4pairIPKNS1_7keywordESR_ET2_
   fun:_ZN5boost6python6class_IN3psi13FittingMetricENS_10shared_ptrIS3_EENS0_6detail13not_specifiedES7_E8def_implIS3_MS3_KFbvENS6_10def_helperIPKcS7_S7_S7_EEEEvPT_SE_T0_RKT1_z
   fun:_Z12export_mintsv
   fun:_Z18init_module_PsiModv
   fun:_ZN5boost6python21handle_exception_implENS_9function0IvEE
   fun:_ZN5boost6python16handle_exceptionIPFvvEEEbT_
   fun:_ZN5boost6python6detail11init_moduleEPKcPFvvE
   fun:_PyImport_FixupExtension
   fun:_PyImport_FixupExtension
}
{
   Boost Python memort leak
   Memcheck:Leak
   fun:malloc
   fun:_Znwm
   fun:_ZN5boost6python7objects15function_objectERKNS1_11py_functionERKSt4pairIPKNS0_6detail7keywordES9_E
   fun:_ZN5boost6python6detail17make_function_auxIMN3psi13FittingMetricEKFNS_10shared_ptrINS3_6MatrixEEEvENS0_21default_call_policiesENS_3mpl7vector2IS7_RS4_EEN4mpl_4int_ILi0EEEEENS0_3api6objectET_RKT0_RKT1_RKSt4pairIPKNS1_7keywordESU_ET2_
   fun:_ZN5boost6python6class_IN3psi13FittingMetricENS_10shared_ptrIS3_EENS0_6detail13not_specifiedES7_E8def_implIS3_MS3_KFNS4_INS2_6MatrixEEEvENS6_10def_helperIPKcS7_S7_S7_EEEEvPT_SG_T0_RKT1_z
   fun:_Z12export_mintsv
   fun:_Z18init_module_PsiModv
   fun:_ZN5boost6python21handle_exception_implENS_9function0IvEE
   fun:_ZN5boost6python16handle_exceptionIPFvvEEEbT_
   fun:_ZN5boost6python6detail11init_moduleEPKcPFvvE
   fun:_PyImport_FixupExtension
   fun:_PyImport_FixupExtension
}
{
   Boost Python memort leak
   Memcheck:Leak
   fun:malloc
   fun:_Znwm
   fun:_ZN5boost6python7objects15function_objectERKNS1_11py_functionERKSt4pairIPKNS0_6detail7keywordES9_E
   fun:_ZN5boost6python6detail17make_function_auxIMN3psi13FittingMetricEKFNS_10shared_ptrINS3_9IntVectorEEEvENS0_21default_call_policiesENS_3mpl7vector2IS7_RS4_EEN4mpl_4int_ILi0EEEEENS0_3api6objectET_RKT0_RKT1_RKSt4pairIPKNS1_7keywordESU_ET2_
   fun:_ZN5boost6python6class_IN3psi13FittingMetricENS_10shared_ptrIS3_EENS0_6detail13not_specifiedES7_E8def_implIS3_MS3_KFNS4_INS2_9IntVectorEEEvENS6_10def_helperIPKcS7_S7_S7_EEEEvPT_SG_T0_RKT1_z
   fun:_Z12export_mintsv
   fun:_Z18init_module_PsiModv
   fun:_ZN5boost6python21handle_exception_implENS_9function0IvEE
   fun:_ZN5boost6python16handle_exceptionIPFvvEEEbT_
   fun:_ZN5boost6python6detail11init_moduleEPKcPFvvE
   fun:_PyImport_FixupExtension
   fun:_PyImport_FixupExtension
}
{
   Boost Python memort leak
   Memcheck:Leak
   fun:malloc
   fun:_Znwm
   fun:_ZN5boost6python7objects15function_objectERKNS1_11py_functionERKSt4pairIPKNS0_6detail7keywordES9_E
   fun:_ZN5boost6python6detail17make_function_auxIMN3psi13FittingMetricEKFNS_10shared_ptrINS3_9IntVectorEEEvENS0_21default_call_policiesENS_3mpl7vector2IS7_RS4_EEN4mpl_4int_ILi0EEEEENS0_3api6objectET_RKT0_RKT1_RKSt4pairIPKNS1_7keywordESU_ET2_
   fun:_ZN5boost6python6class_IN3psi13FittingMetricENS_10shared_ptrIS3_EENS0_6detail13not_specifiedES7_E8def_implIS3_MS3_KFNS4_INS2_9IntVectorEEEvENS6_10def_helperIPKcS7_S7_S7_EEEEvPT_SG_T0_RKT1_z
   fun:_Z12export_mintsv
   fun:_Z18init_module_PsiModv
   fun:_ZN5boost6python21handle_exception_implENS_9function0IvEE
   fun:_ZN5boost6python16handle_exceptionIPFvvEEEbT_
   fun:_ZN5boost6python6detail11init_moduleEPKcPFvvE
   fun:_PyImport_FixupExtension
   fun:_PyImport_FixupExtension
}
{
   Boost Python memort leak
   Memcheck:Leak
   fun:malloc
   fun:_Znwm
   fun:_ZN5boost6python7objects15function_objectERKNS1_11py_functionERKSt4pairIPKNS0_6detail7keywordES9_E
   fun:_ZN5boost6python6detail17make_function_auxIMN3psi13FittingMetricEFvvENS0_21default_call_policiesENS_3mpl7vector2IvRS4_EEN4mpl_4int_ILi0EEEEENS0_3api6objectET_RKT0_RKT1_RKSt4pairIPKNS1_7keywordESR_ET2_
   fun:_ZN5boost6python6class_IN3psi13FittingMetricENS_10shared_ptrIS3_EENS0_6detail13not_specifiedES7_E8def_implIS3_MS3_FvvENS6_10def_helperIPKcS7_S7_S7_EEEEvPT_SE_T0_RKT1_z
   fun:_Z12export_mintsv
   fun:_Z18init_module_PsiModv
   fun:_ZN5boost6python21handle_exception_implENS_9function0IvEE
   fun:_ZN5boost6python16handle_exceptionIPFvvEEEbT_
   fun:_ZN5boost6python6detail11init_moduleEPKcPFvvE
   fun:_PyImport_FixupExtension
   fun:_PyImport_FixupExtension
}
{
   Boost Python memort leak
   Memcheck:Leak
   fun:malloc
   fun:_Znwm
   fun:_ZN5boost6python7objects15function_objectERKNS1_11py_functionERKSt4pairIPKNS0_6detail7keywordES9_E
   fun:_ZN5boost6python6detail17make_function_auxIMN3psi13FittingMetricEFvvENS0_21default_call_policiesENS_3mpl7vector2IvRS4_EEN4mpl_4int_ILi0EEEEENS0_3api6objectET_RKT0_RKT1_RKSt4pairIPKNS1_7keywordESR_ET2_
   fun:_ZN5boost6python6class_IN3psi13FittingMetricENS_10shared_ptrIS3_EENS0_6detail13not_specifiedES7_E8def_implIS3_MS3_FvvENS6_10def_helperIPKcS7_S7_S7_EEEEvPT_SE_T0_RKT1_z
   fun:_Z12export_mintsv
   fun:_Z18init_module_PsiModv
   fun:_ZN5boost6python21handle_exception_implENS_9function0IvEE
   fun:_ZN5boost6python16handle_exceptionIPFvvEEEbT_
   fun:_ZN5boost6python6detail11init_moduleEPKcPFvvE
   fun:_PyImport_FixupExtension
   fun:_PyImport_FixupExtension
}
{
   Boost Python memort leak
   Memcheck:Leak
   fun:malloc
   fun:_Znwm
   fun:_ZN5boost6python7objects15function_objectERKNS1_11py_functionERKSt4pairIPKNS0_6detail7keywordES9_E
   fun:_ZN5boost6python6detail17make_function_auxIMN3psi13FittingMetricEFvdENS0_21default_call_policiesENS_3mpl7vector3IvRS4_dEEN4mpl_4int_ILi0EEEEENS0_3api6objectET_RKT0_RKT1_RKSt4pairIPKNS1_7keywordESR_ET2_
   fun:_ZN5boost6python6class_IN3psi13FittingMetricENS_10shared_ptrIS3_EENS0_6detail13not_specifiedES7_E8def_implIS3_MS3_FvdENS6_10def_helperIPKcS7_S7_S7_EEEEvPT_SE_T0_RKT1_z
   fun:_Z12export_mintsv
   fun:_Z18init_module_PsiModv
   fun:_ZN5boost6python21handle_exception_implENS_9function0IvEE
   fun:_ZN5boost6python16handle_exceptionIPFvvEEEbT_
   fun:_ZN5boost6python6detail11init_moduleEPKcPFvvE
   fun:_PyImport_FixupExtension
   fun:_PyImport_FixupExtension
}
{
   Boost Python memort leak
   Memcheck:Leak
   fun:malloc
   fun:_Znwm
   fun:_ZN5boost6python7objects15function_objectERKNS1_11py_functionERKSt4pairIPKNS0_6detail7keywordES9_E
   fun:_ZN5boost6python6detail17make_function_auxIMN3psi13FittingMetricEFvdENS0_21default_call_policiesENS_3mpl7vector3IvRS4_dEEN4mpl_4int_ILi0EEEEENS0_3api6objectET_RKT0_RKT1_RKSt4pairIPKNS1_7keywordESR_ET2_
   fun:_ZN5boost6python6class_IN3psi13FittingMetricENS_10shared_ptrIS3_EENS0_6detail13not_specifiedES7_E8def_implIS3_MS3_FvdENS6_10def_helperIPKcS7_S7_S7_EEEEvPT_SE_T0_RKT1_z
   fun:_Z12export_mintsv
   fun:_Z18init_module_PsiModv
   fun:_ZN5boost6python21handle_exception_implENS_9function0IvEE
   fun:_ZN5boost6python16handle_exceptionIPFvvEEEbT_
   fun:_ZN5boost6python6detail11init_moduleEPKcPFvvE
   fun:_PyImport_FixupExtension
   fun:_PyImport_FixupExtension
}
{
   Boost Python memort leak
   Memcheck:Leak
   fun:malloc
   fun:_Znwm
   fun:_ZN5boost6python7objects15function_objectERKNS1_11py_functionERKSt4pairIPKNS0_6detail7keywordES9_E
   fun:_ZN5boost6python6detail17make_function_auxIMN3psi13FittingMetricEFvvENS0_21default_call_policiesENS_3mpl7vector2IvRS4_EEN4mpl_4int_ILi0EEEEENS0_3api6objectET_RKT0_RKT1_RKSt4pairIPKNS1_7keywordESR_ET2_
   fun:_ZN5boost6python6class_IN3psi13FittingMetricENS_10shared_ptrIS3_EENS0_6detail13not_specifiedES7_E8def_implIS3_MS3_FvvENS6_10def_helperIPKcS7_S7_S7_EEEEvPT_SE_T0_RKT1_z
   fun:_Z12export_mintsv
   fun:_Z18init_module_PsiModv
   fun:_ZN5boost6python21handle_exception_implENS_9function0IvEE
   fun:_ZN5boost6python16handle_exceptionIPFvvEEEbT_
   fun:_ZN5boost6python6detail11init_moduleEPKcPFvvE
   fun:_PyImport_FixupExtension
   fun:_PyImport_FixupExtension
}
{
   Boost Python memort leak
   Memcheck:Leak
   fun:malloc
   fun:_Znwm
   fun:_ZN5boost6python7objects15function_objectERKNS1_11py_functionERKSt4pairIPKNS0_6detail7keywordES9_E
   fun:_ZN5boost6python6detail17make_function_auxIPFvP7_objectENS0_21default_call_policiesENS_3mpl7vector2IvS4_EEN4mpl_4int_ILi0EEEEENS0_3api6objectET_RKT0_RKT1_RKSt4pairIPKNS1_7keywordESQ_ET2_
   fun:_ZN5boost6python6detail12def_init_auxINS0_6class_IN3psi11PseudoTrialENS_10shared_ptrIS5_EENS1_13not_specifiedES8_EENS0_21default_call_policiesENS_3mpl7vector0IN4mpl_2naEEENSB_4sizeISF_EEEEvRT_RKT1_T2_RKT0_PKcRKSt4pairIPKNS1_7keywordESW_E
   fun:_ZN5boost6python6class_IN3psi11PseudoTrialENS_10shared_ptrIS3_EENS0_6detail13not_specifiedES7_EC2EPKcSA_
   fun:_Z12export_mintsv
   fun:_Z18init_module_PsiModv
   fun:_ZN5boost6python21handle_exception_implENS_9function0IvEE
   fun:_ZN5boost6python16handle_exceptionIPFvvEEEbT_
   fun:_ZN5boost6python6detail11init_moduleEPKcPFvvE
   fun:_PyImport_FixupExtension
}
{
   Boost Python memort leak
   Memcheck:Leak
   fun:malloc
   fun:_Znwm
   fun:_ZN5boost6python7objects15function_objectERKNS1_11py_functionERKSt4pairIPKNS0_6detail7keywordES9_E
   fun:_ZN5boost6python6detail17make_function_auxIMN3psi11PseudoTrialEKFNS_10shared_ptrINS3_6MatrixEEEvENS0_21default_call_policiesENS_3mpl7vector2IS7_RS4_EEN4mpl_4int_ILi0EEEEENS0_3api6objectET_RKT0_RKT1_RKSt4pairIPKNS1_7keywordESU_ET2_
   fun:_ZN5boost6python6class_IN3psi11PseudoTrialENS_10shared_ptrIS3_EENS0_6detail13not_specifiedES7_E8def_implIS3_MS3_KFNS4_INS2_6MatrixEEEvENS6_10def_helperIPKcS7_S7_S7_EEEEvPT_SG_T0_RKT1_z
   fun:_Z12export_mintsv
   fun:_Z18init_module_PsiModv
   fun:_ZN5boost6python21handle_exception_implENS_9function0IvEE
   fun:_ZN5boost6python16handle_exceptionIPFvvEEEbT_
   fun:_ZN5boost6python6detail11init_moduleEPKcPFvvE
   fun:_PyImport_FixupExtension
   fun:_PyImport_FixupExtension
}
{
   Boost Python memort leak
   Memcheck:Leak
   fun:malloc
   fun:_Znwm
   fun:_ZN5boost6python7objects15function_objectERKNS1_11py_functionERKSt4pairIPKNS0_6detail7keywordES9_E
   fun:_ZN5boost6python6detail17make_function_auxIMN3psi11PseudoTrialEKFNS_10shared_ptrINS3_6MatrixEEEvENS0_21default_call_policiesENS_3mpl7vector2IS7_RS4_EEN4mpl_4int_ILi0EEEEENS0_3api6objectET_RKT0_RKT1_RKSt4pairIPKNS1_7keywordESU_ET2_
   fun:_ZN5boost6python6class_IN3psi11PseudoTrialENS_10shared_ptrIS3_EENS0_6detail13not_specifiedES7_E8def_implIS3_MS3_KFNS4_INS2_6MatrixEEEvENS6_10def_helperIPKcS7_S7_S7_EEEEvPT_SG_T0_RKT1_z
   fun:_Z12export_mintsv
   fun:_Z18init_module_PsiModv
   fun:_ZN5boost6python21handle_exception_implENS_9function0IvEE
   fun:_ZN5boost6python16handle_exceptionIPFvvEEEbT_
   fun:_ZN5boost6python6detail11init_moduleEPKcPFvvE
   fun:_PyImport_FixupExtension
   fun:_PyImport_FixupExtension
}
{
   Boost Python memort leak
   Memcheck:Leak
   fun:malloc
   fun:_Znwm
   fun:_ZN5boost6python7objects15function_objectERKNS1_11py_functionERKSt4pairIPKNS0_6detail7keywordES9_E
   fun:_ZN5boost6python6detail17make_function_auxIMN3psi11PseudoTrialEKFNS_10shared_ptrINS3_6MatrixEEEvENS0_21default_call_policiesENS_3mpl7vector2IS7_RS4_EEN4mpl_4int_ILi0EEEEENS0_3api6objectET_RKT0_RKT1_RKSt4pairIPKNS1_7keywordESU_ET2_
   fun:_ZN5boost6python6class_IN3psi11PseudoTrialENS_10shared_ptrIS3_EENS0_6detail13not_specifiedES7_E8def_implIS3_MS3_KFNS4_INS2_6MatrixEEEvENS6_10def_helperIPKcS7_S7_S7_EEEEvPT_SG_T0_RKT1_z
   fun:_Z12export_mintsv
   fun:_Z18init_module_PsiModv
   fun:_ZN5boost6python21handle_exception_implENS_9function0IvEE
   fun:_ZN5boost6python16handle_exceptionIPFvvEEEbT_
   fun:_ZN5boost6python6detail11init_moduleEPKcPFvvE
   fun:_PyImport_FixupExtension
   fun:_PyImport_FixupExtension
}
{
   Boost Python memort leak
   Memcheck:Leak
   fun:malloc
   fun:_Znwm
   fun:_ZN5boost6python7objects15function_objectERKNS1_11py_functionERKSt4pairIPKNS0_6detail7keywordES9_E
   fun:_ZN5boost6python6detail17make_function_auxIMN3psi11PseudoTrialEKFNS_10shared_ptrINS3_6MatrixEEEvENS0_21default_call_policiesENS_3mpl7vector2IS7_RS4_EEN4mpl_4int_ILi0EEEEENS0_3api6objectET_RKT0_RKT1_RKSt4pairIPKNS1_7keywordESU_ET2_
   fun:_ZN5boost6python6class_IN3psi11PseudoTrialENS_10shared_ptrIS3_EENS0_6detail13not_specifiedES7_E8def_implIS3_MS3_KFNS4_INS2_6MatrixEEEvENS6_10def_helperIPKcS7_S7_S7_EEEEvPT_SG_T0_RKT1_z
   fun:_Z12export_mintsv
   fun:_Z18init_module_PsiModv
   fun:_ZN5boost6python21handle_exception_implENS_9function0IvEE
   fun:_ZN5boost6python16handle_exceptionIPFvvEEEbT_
   fun:_ZN5boost6python6detail11init_moduleEPKcPFvvE
   fun:_PyImport_FixupExtension
   fun:_PyImport_FixupExtension
}
{
   Boost Python memort leak
   Memcheck:Leak
   fun:malloc
   fun:_Znwm
   fun:_ZN5boost6python7objects15function_objectERKNS1_11py_functionERKSt4pairIPKNS0_6detail7keywordES9_E
   fun:_ZN5boost6python6detail17make_function_auxIMN3psi11PseudoTrialEKFNS_10shared_ptrINS3_6MatrixEEEvENS0_21default_call_policiesENS_3mpl7vector2IS7_RS4_EEN4mpl_4int_ILi0EEEEENS0_3api6objectET_RKT0_RKT1_RKSt4pairIPKNS1_7keywordESU_ET2_
   fun:_ZN5boost6python6class_IN3psi11PseudoTrialENS_10shared_ptrIS3_EENS0_6detail13not_specifiedES7_E8def_implIS3_MS3_KFNS4_INS2_6MatrixEEEvENS6_10def_helperIPKcS7_S7_S7_EEEEvPT_SG_T0_RKT1_z
   fun:_Z12export_mintsv
   fun:_Z18init_module_PsiModv
   fun:_ZN5boost6python21handle_exception_implENS_9function0IvEE
   fun:_ZN5boost6python16handle_exceptionIPFvvEEEbT_
   fun:_ZN5boost6python6detail11init_moduleEPKcPFvvE
   fun:_PyImport_FixupExtension
   fun:_PyImport_FixupExtension
}
{
   Boost Python memort leak
   Memcheck:Leak
   fun:malloc
   fun:_Znwm
   fun:_ZN5boost6python7objects15function_objectERKNS1_11py_functionERKSt4pairIPKNS0_6detail7keywordES9_E
   fun:_ZN5boost6python6detail17make_function_auxIPFvP7_objectENS0_21default_call_policiesENS_3mpl7vector2IvS4_EEN4mpl_4int_ILi0EEEEENS0_3api6objectET_RKT0_RKT1_RKSt4pairIPKNS1_7keywordESQ_ET2_
   fun:_ZN5boost6python6detail12def_init_auxINS0_6class_IN3psi7Vector3ENS1_13not_specifiedES6_S6_EENS0_21default_call_policiesENS_3mpl7vector0IN4mpl_2naEEENS9_4sizeISD_EEEEvRT_RKT1_T2_RKT0_PKcRKSt4pairIPKNS1_7keywordESU_E
   fun:_ZN5boost6python6class_IN3psi7Vector3ENS0_6detail13not_specifiedES5_S5_EC2EPKcS8_
   fun:_Z12export_mintsv
   fun:_Z18init_module_PsiModv
   fun:_ZN5boost6python21handle_exception_implENS_9function0IvEE
   fun:_ZN5boost6python16handle_exceptionIPFvvEEEbT_
   fun:_ZN5boost6python6detail11init_moduleEPKcPFvvE
   fun:_PyImport_FixupExtension
}
{
   Boost Python memort leak
   Memcheck:Leak
   fun:malloc
   fun:_Znwm
   fun:_ZN5boost6python7objects15function_objectERKNS1_11py_functionERKSt4pairIPKNS0_6detail7keywordES9_E
   fun:_ZN5boost6python6detail17make_function_auxIPFvP7_objectdENS0_21default_call_policiesENS_3mpl7vector3IvS4_dEEN4mpl_4int_ILi0EEEEENS0_3api6objectET_RKT0_RKT1_RKSt4pairIPKNS1_7keywordESQ_ET2_
   fun:_ZN5boost6python6detail12def_init_auxINS0_6class_IN3psi7Vector3ENS1_13not_specifiedES6_S6_EENS0_21default_call_policiesENS_3mpl7vector1IdEENS9_4sizeISB_EEEEvRT_RKT1_T2_RKT0_PKcRKSt4pairIPKNS1_7keywordESS_E
   fun:_Z12export_mintsv
   fun:_Z18init_module_PsiModv
   fun:_ZN5boost6python21handle_exception_implENS_9function0IvEE
   fun:_ZN5boost6python16handle_exceptionIPFvvEEEbT_
   fun:_ZN5boost6python6detail11init_moduleEPKcPFvvE
   fun:_PyImport_FixupExtension
   fun:_PyImport_FixupExtension
}
{
   Boost Python memort leak
   Memcheck:Leak
   fun:malloc
   fun:_Znwm
   fun:_ZN5boost6python7objects15function_objectERKNS1_11py_functionERKSt4pairIPKNS0_6detail7keywordES9_E
   fun:_ZN5boost6python6detail17make_function_auxIPFvP7_objectdddENS0_21default_call_policiesENS_3mpl7vector5IvS4_dddEEN4mpl_4int_ILi0EEEEENS0_3api6objectET_RKT0_RKT1_RKSt4pairIPKNS1_7keywordESQ_ET2_
   fun:_ZN5boost6python6detail12def_init_auxINS0_6class_IN3psi7Vector3ENS1_13not_specifiedES6_S6_EENS0_21default_call_policiesENS_3mpl7vector3IdddEENS9_4sizeISB_EEEEvRT_RKT1_T2_RKT0_PKcRKSt4pairIPKNS1_7keywordESS_E
   fun:_Z12export_mintsv
   fun:_Z18init_module_PsiModv
   fun:_ZN5boost6python21handle_exception_implENS_9function0IvEE
   fun:_ZN5boost6python16handle_exceptionIPFvvEEEbT_
   fun:_ZN5boost6python6detail11init_moduleEPKcPFvvE
   fun:_PyImport_FixupExtension
   fun:_PyImport_FixupExtension
}
{
   Boost Python memort leak
   Memcheck:Leak
   fun:malloc
   fun:_Znwm
   fun:_ZN5boost6python7objects15function_objectERKNS1_11py_functionERKSt4pairIPKNS0_6detail7keywordES9_E
   fun:_ZN5boost6python6detail17make_function_auxIPFvP7_objectRKN3psi7Vector3EENS0_21default_call_policiesENS_3mpl7vector3IvS4_S8_EEN4mpl_4int_ILi0EEEEENS0_3api6objectET_RKT0_RKT1_RKSt4pairIPKNS1_7keywordESU_ET2_
   fun:_ZN5boost6python6detail12def_init_auxINS0_6class_IN3psi7Vector3ENS1_13not_specifiedES6_S6_EENS0_21default_call_policiesENS_3mpl7vector1IRKS5_EENS9_4sizeISD_EEEEvRT_RKT1_T2_RKT0_PKcRKSt4pairIPKNS1_7keywordESU_E
   fun:_Z12export_mintsv
   fun:_Z18init_module_PsiModv
   fun:_ZN5boost6python21handle_exception_implENS_9function0IvEE
   fun:_ZN5boost6python16handle_exceptionIPFvvEEEbT_
   fun:_ZN5boost6python6detail11init_moduleEPKcPFvvE
   fun:_PyImport_FixupExtension
   fun:_PyImport_FixupExtension
}
{
   Boost Python memort leak
   Memcheck:Leak
   fun:malloc
   fun:_Znwm
   fun:_ZN5boost6python7objects15function_objectERKNS1_11py_functionERKSt4pairIPKNS0_6detail7keywordES9_E
   fun:_ZN5boost6python6detail17make_function_auxIPFP7_objectNS0_14back_referenceIRN3psi7Vector3EEERKS7_ENS0_21default_call_policiesENS_3mpl7vector3IS4_S9_SB_EEN4mpl_4int_ILi0EEEEENS0_3api6objectET_RKT0_RKT1_RKSt4pairIPKNS1_7keywordESX_ET2_
   fun:_ZN5boost6python6class_IN3psi7Vector3ENS0_6detail13not_specifiedES5_S5_E8def_implIS3_PFP7_objectNS0_14back_referenceIRS3_EERKS3_ENS4_10def_helperIPKcS5_S5_S5_EEEEvPT_SJ_T0_RKT1_z
   fun:_Z12export_mintsv
   fun:_Z18init_module_PsiModv
   fun:_ZN5boost6python21handle_exception_implENS_9function0IvEE
   fun:_ZN5boost6python16handle_exceptionIPFvvEEEbT_
   fun:_ZN5boost6python6detail11init_moduleEPKcPFvvE
   fun:_PyImport_FixupExtension
   fun:_PyImport_FixupExtension
}
{
   Boost Python memort leak
   Memcheck:Leak
   fun:malloc
   fun:_Znwm
   fun:_ZN5boost6python7objects15function_objectERKNS1_11py_functionERKSt4pairIPKNS0_6detail7keywordES9_E
   fun:_ZN5boost6python6detail17make_function_auxIPFP7_objectNS0_14back_referenceIRN3psi7Vector3EEERKS7_ENS0_21default_call_policiesENS_3mpl7vector3IS4_S9_SB_EEN4mpl_4int_ILi0EEEEENS0_3api6objectET_RKT0_RKT1_RKSt4pairIPKNS1_7keywordESX_ET2_
   fun:_ZN5boost6python6class_IN3psi7Vector3ENS0_6detail13not_specifiedES5_S5_E8def_implIS3_PFP7_objectNS0_14back_referenceIRS3_EERKS3_ENS4_10def_helperIPKcS5_S5_S5_EEEEvPT_SJ_T0_RKT1_z
   fun:_Z12export_mintsv
   fun:_Z18init_module_PsiModv
   fun:_ZN5boost6python21handle_exception_implENS_9function0IvEE
   fun:_ZN5boost6python16handle_exceptionIPFvvEEEbT_
   fun:_ZN5boost6python6detail11init_moduleEPKcPFvvE
   fun:_PyImport_FixupExtension
   fun:_PyImport_FixupExtension
}
{
   Boost Python memort leak
   Memcheck:Leak
   fun:malloc
   fun:_Znwm
   fun:_ZN5boost6python7objects15function_objectERKNS1_11py_functionERKSt4pairIPKNS0_6detail7keywordES9_E
   fun:_ZN5boost6python6detail17make_function_auxIPFP7_objectNS0_14back_referenceIRN3psi7Vector3EEERKdENS0_21default_call_policiesENS_3mpl7vector3IS4_S9_SB_EEN4mpl_4int_ILi0EEEEENS0_3api6objectET_RKT0_RKT1_RKSt4pairIPKNS1_7keywordESX_ET2_
   fun:_ZN5boost6python6class_IN3psi7Vector3ENS0_6detail13not_specifiedES5_S5_E8def_implIS3_PFP7_objectNS0_14back_referenceIRS3_EERKdENS4_10def_helperIPKcS5_S5_S5_EEEEvPT_SJ_T0_RKT1_z
   fun:_Z12export_mintsv
   fun:_Z18init_module_PsiModv
   fun:_ZN5boost6python21handle_exception_implENS_9function0IvEE
   fun:_ZN5boost6python16handle_exceptionIPFvvEEEbT_
   fun:_ZN5boost6python6detail11init_moduleEPKcPFvvE
   fun:_PyImport_FixupExtension
   fun:_PyImport_FixupExtension
}
{
   Boost Python memort leak
   Memcheck:Leak
   fun:malloc
   fun:_Znwm
   fun:_ZN5boost6python7objects15function_objectERKNS1_11py_functionERKSt4pairIPKNS0_6detail7keywordES9_E
   fun:_ZN5boost6python6detail17make_function_auxIPFP7_objectRN3psi7Vector3ERKS6_ENS0_21default_call_policiesENS_3mpl7vector3IS4_S7_S9_EEN4mpl_4int_ILi0EEEEENS0_3api6objectET_RKT0_RKT1_RKSt4pairIPKNS1_7keywordESV_ET2_
   fun:_ZN5boost6python6class_IN3psi7Vector3ENS0_6detail13not_specifiedES5_S5_E8def_implIS3_PFP7_objectRS3_RKS3_ENS4_10def_helperIPKcS5_S5_S5_EEEEvPT_SH_T0_RKT1_z
   fun:_Z12export_mintsv
   fun:_Z18init_module_PsiModv
   fun:_ZN5boost6python21handle_exception_implENS_9function0IvEE
   fun:_ZN5boost6python16handle_exceptionIPFvvEEEbT_
   fun:_ZN5boost6python6detail11init_moduleEPKcPFvvE
   fun:_PyImport_FixupExtension
   fun:_PyImport_FixupExtension
}
{
   Boost Python memort leak
   Memcheck:Leak
   fun:malloc
   fun:_Znwm
   fun:_ZN5boost6python7objects15function_objectERKNS1_11py_functionERKSt4pairIPKNS0_6detail7keywordES9_E
   fun:_ZN5boost6python6detail17make_function_auxIPFP7_objectRN3psi7Vector3ERKS6_ENS0_21default_call_policiesENS_3mpl7vector3IS4_S7_S9_EEN4mpl_4int_ILi0EEEEENS0_3api6objectET_RKT0_RKT1_RKSt4pairIPKNS1_7keywordESV_ET2_
   fun:_ZN5boost6python6class_IN3psi7Vector3ENS0_6detail13not_specifiedES5_S5_E8def_implIS3_PFP7_objectRS3_RKS3_ENS4_10def_helperIPKcS5_S5_S5_EEEEvPT_SH_T0_RKT1_z
   fun:_Z12export_mintsv
   fun:_Z18init_module_PsiModv
   fun:_ZN5boost6python21handle_exception_implENS_9function0IvEE
   fun:_ZN5boost6python16handle_exceptionIPFvvEEEbT_
   fun:_ZN5boost6python6detail11init_moduleEPKcPFvvE
   fun:_PyImport_FixupExtension
   fun:_PyImport_FixupExtension
}
{
   Boost Python memort leak
   Memcheck:Leak
   fun:malloc
   fun:_Znwm
   fun:_ZN5boost6python7objects15function_objectERKNS1_11py_functionERKSt4pairIPKNS0_6detail7keywordES9_E
   fun:_ZN5boost6python6detail17make_function_auxIPFP7_objectRN3psi7Vector3EENS0_21default_call_policiesENS_3mpl7vector2IS4_S7_EEN4mpl_4int_ILi0EEEEENS0_3api6objectET_RKT0_RKT1_RKSt4pairIPKNS1_7keywordEST_ET2_
   fun:_ZN5boost6python6class_IN3psi7Vector3ENS0_6detail13not_specifiedES5_S5_E8def_implIS3_PFP7_objectRS3_ENS4_10def_helperIPKcS5_S5_S5_EEEEvPT_SF_T0_RKT1_z
   fun:_Z12export_mintsv
   fun:_Z18init_module_PsiModv
   fun:_ZN5boost6python21handle_exception_implENS_9function0IvEE
   fun:_ZN5boost6python16handle_exceptionIPFvvEEEbT_
   fun:_ZN5boost6python6detail11init_moduleEPKcPFvvE
   fun:_PyImport_FixupExtension
   fun:_PyImport_FixupExtension
}
{
   Boost Python memort leak
   Memcheck:Leak
   fun:malloc
   fun:_Znwm
   fun:_ZN5boost6python7objects15function_objectERKNS1_11py_functionERKSt4pairIPKNS0_6detail7keywordES9_E
   fun:_ZN5boost6python6detail17make_function_auxIMN3psi7Vector3EKFdRKS4_ENS0_21default_call_policiesENS_3mpl7vector3IdRS4_S6_EEN4mpl_4int_ILi0EEEEENS0_3api6objectET_RKT0_RKT1_RKSt4pairIPKNS1_7keywordEST_ET2_
   fun:_ZN5boost6python6class_IN3psi7Vector3ENS0_6detail13not_specifiedES5_S5_E8def_implIS3_MS3_KFdRKS3_ENS4_10def_helperIPKcS5_S5_S5_EEEEvPT_SE_T0_RKT1_z
   fun:_Z12export_mintsv
   fun:_Z18init_module_PsiModv
   fun:_ZN5boost6python21handle_exception_implENS_9function0IvEE
   fun:_ZN5boost6python16handle_exceptionIPFvvEEEbT_
   fun:_ZN5boost6python6detail11init_moduleEPKcPFvvE
   fun:_PyImport_FixupExtension
   fun:_PyImport_FixupExtension
}
{
   Boost Python memort leak
   Memcheck:Leak
   fun:malloc
   fun:_Znwm
   fun:_ZN5boost6python7objects15function_objectERKNS1_11py_functionERKSt4pairIPKNS0_6detail7keywordES9_E
   fun:_ZN5boost6python6detail17make_function_auxIMN3psi7Vector3EKFdRKS4_ENS0_21default_call_policiesENS_3mpl7vector3IdRS4_S6_EEN4mpl_4int_ILi0EEEEENS0_3api6objectET_RKT0_RKT1_RKSt4pairIPKNS1_7keywordEST_ET2_
   fun:_ZN5boost6python6class_IN3psi7Vector3ENS0_6detail13not_specifiedES5_S5_E8def_implIS3_MS3_KFdRKS3_ENS4_10def_helperIPKcS5_S5_S5_EEEEvPT_SE_T0_RKT1_z
   fun:_Z12export_mintsv
   fun:_Z18init_module_PsiModv
   fun:_ZN5boost6python21handle_exception_implENS_9function0IvEE
   fun:_ZN5boost6python16handle_exceptionIPFvvEEEbT_
   fun:_ZN5boost6python6detail11init_moduleEPKcPFvvE
   fun:_PyImport_FixupExtension
   fun:_PyImport_FixupExtension
}
{
   Boost Python memort leak
   Memcheck:Leak
   fun:malloc
   fun:_Znwm
   fun:_ZN5boost6python7objects15function_objectERKNS1_11py_functionERKSt4pairIPKNS0_6detail7keywordES9_E
   fun:_ZN5boost6python6detail17make_function_auxIMN3psi7Vector3EFvvENS0_21default_call_policiesENS_3mpl7vector2IvRS4_EEN4mpl_4int_ILi0EEEEENS0_3api6objectET_RKT0_RKT1_RKSt4pairIPKNS1_7keywordESR_ET2_
   fun:_ZN5boost6python6class_IN3psi7Vector3ENS0_6detail13not_specifiedES5_S5_E8def_implIS3_MS3_FvvENS4_10def_helperIPKcS5_S5_S5_EEEEvPT_SC_T0_RKT1_z
   fun:_Z12export_mintsv
   fun:_Z18init_module_PsiModv
   fun:_ZN5boost6python21handle_exception_implENS_9function0IvEE
   fun:_ZN5boost6python16handle_exceptionIPFvvEEEbT_
   fun:_ZN5boost6python6detail11init_moduleEPKcPFvvE
   fun:_PyImport_FixupExtension
   fun:_PyImport_FixupExtension
}
{
   Boost Python memort leak
   Memcheck:Leak
   fun:malloc
   fun:_Znwm
   fun:_ZN5boost6python7objects15function_objectERKNS1_11py_functionERKSt4pairIPKNS0_6detail7keywordES9_E
   fun:_ZN5boost6python6detail17make_function_auxIMN3psi7Vector3EKFdvENS0_21default_call_policiesENS_3mpl7vector2IdRS4_EEN4mpl_4int_ILi0EEEEENS0_3api6objectET_RKT0_RKT1_RKSt4pairIPKNS1_7keywordESR_ET2_
   fun:_ZN5boost6python6class_IN3psi7Vector3ENS0_6detail13not_specifiedES5_S5_E8def_implIS3_MS3_KFdvENS4_10def_helperIPKcS5_S5_S5_EEEEvPT_SC_T0_RKT1_z
   fun:_Z12export_mintsv
   fun:_Z18init_module_PsiModv
   fun:_ZN5boost6python21handle_exception_implENS_9function0IvEE
   fun:_ZN5boost6python16handle_exceptionIPFvvEEEbT_
   fun:_ZN5boost6python6detail11init_moduleEPKcPFvvE
   fun:_PyImport_FixupExtension
   fun:_PyImport_FixupExtension
}
{
   Boost Python memort leak
   Memcheck:Leak
   fun:malloc
   fun:_Znwm
   fun:_ZN5boost6python7objects15function_objectERKNS1_11py_functionERKSt4pairIPKNS0_6detail7keywordES9_E
   fun:_ZN5boost6python6detail17make_function_auxIMN3psi7Vector3EKFS4_RKS4_ENS0_21default_call_policiesENS_3mpl7vector3IS4_RS4_S6_EEN4mpl_4int_ILi0EEEEENS0_3api6objectET_RKT0_RKT1_RKSt4pairIPKNS1_7keywordEST_ET2_
   fun:_ZN5boost6python6class_IN3psi7Vector3ENS0_6detail13not_specifiedES5_S5_E8def_implIS3_MS3_KFS3_RKS3_ENS4_10def_helperIPKcS5_S5_S5_EEEEvPT_SE_T0_RKT1_z
   fun:_Z12export_mintsv
   fun:_Z18init_module_PsiModv
   fun:_ZN5boost6python21handle_exception_implENS_9function0IvEE
   fun:_ZN5boost6python16handle_exceptionIPFvvEEEbT_
   fun:_ZN5boost6python6detail11init_moduleEPKcPFvvE
   fun:_PyImport_FixupExtension
   fun:_PyImport_FixupExtension
}
{
   Boost Python memort leak
   Memcheck:Leak
   fun:malloc
   fun:_Znwm
   fun:_ZN5boost6python7objects15function_objectERKNS1_11py_functionERKSt4pairIPKNS0_6detail7keywordES9_E
   fun:_ZN5boost6python6detail17make_function_auxIMN3psi7Vector3EFSsvENS0_21default_call_policiesENS_3mpl7vector2ISsRS4_EEN4mpl_4int_ILi0EEEEENS0_3api6objectET_RKT0_RKT1_RKSt4pairIPKNS1_7keywordESR_ET2_
   fun:_ZN5boost6python6class_IN3psi7Vector3ENS0_6detail13not_specifiedES5_S5_E8def_implIS3_MS3_FSsvENS4_10def_helperIPKcS5_S5_S5_EEEEvPT_SC_T0_RKT1_z
   fun:_Z12export_mintsv
   fun:_Z18init_module_PsiModv
   fun:_ZN5boost6python21handle_exception_implENS_9function0IvEE
   fun:_ZN5boost6python16handle_exceptionIPFvvEEEbT_
   fun:_ZN5boost6python6detail11init_moduleEPKcPFvvE
   fun:_PyImport_FixupExtension
   fun:_PyImport_FixupExtension
}
{
   Boost Python memort leak
   Memcheck:Leak
   fun:malloc
   fun:_Znwm
   fun:_ZN5boost6python7objects15function_objectERKNS1_11py_functionERKSt4pairIPKNS0_6detail7keywordES9_E
   fun:_ZN5boost6python6detail17make_function_auxIMN3psi7Vector3EFdiENS0_21default_call_policiesENS_3mpl7vector3IdRS4_iEEN4mpl_4int_ILi0EEEEENS0_3api6objectET_RKT0_RKT1_RKSt4pairIPKNS1_7keywordESR_ET2_
   fun:_ZN5boost6python6class_IN3psi7Vector3ENS0_6detail13not_specifiedES5_S5_E8def_implIS3_MS3_FdiENS4_10def_helperIPKcS5_S5_S5_EEEEvPT_SC_T0_RKT1_z
   fun:_Z12export_mintsv
   fun:_Z18init_module_PsiModv
   fun:_ZN5boost6python21handle_exception_implENS_9function0IvEE
   fun:_ZN5boost6python16handle_exceptionIPFvvEEEbT_
   fun:_ZN5boost6python6detail11init_moduleEPKcPFvvE
   fun:_PyImport_FixupExtension
   fun:_PyImport_FixupExtension
}
{
   Boost Python memort leak
   Memcheck:Leak
   fun:malloc
   fun:_Znwm
   fun:_ZN5boost6python7objects15function_objectERKNS1_11py_functionERKSt4pairIPKNS0_6detail7keywordES9_E
   fun:_ZN5boost6python6detail17make_function_auxIPFvP7_objectENS0_21default_call_policiesENS_3mpl7vector2IvS4_EEN4mpl_4int_ILi0EEEEENS0_3api6objectET_RKT0_RKT1_RKSt4pairIPKNS1_7keywordESQ_ET2_
   fun:_ZN5boost6python6detail12def_init_auxINS0_6class_IN3psi17SymmetryOperationENS1_13not_specifiedES6_S6_EENS0_21default_call_policiesENS_3mpl7vector0IN4mpl_2naEEENS9_4sizeISD_EEEEvRT_RKT1_T2_RKT0_PKcRKSt4pairIPKNS1_7keywordESU_E
   fun:_ZN5boost6python6class_IN3psi17SymmetryOperationENS0_6detail13not_specifiedES5_S5_EC2EPKcS8_
   fun:_Z12export_mintsv
   fun:_Z18init_module_PsiModv
   fun:_ZN5boost6python21handle_exception_implENS_9function0IvEE
   fun:_ZN5boost6python16handle_exceptionIPFvvEEEbT_
   fun:_ZN5boost6python6detail11init_moduleEPKcPFvvE
   fun:_PyImport_FixupExtension
}
{
   Boost Python memort leak
   Memcheck:Leak
   fun:malloc
   fun:_Znwm
   fun:_ZN5boost6python7objects15function_objectERKNS1_11py_functionERKSt4pairIPKNS0_6detail7keywordES9_E
   fun:_ZN5boost6python6detail17make_function_auxIPFvP7_objectRKN3psi17SymmetryOperationEENS0_21default_call_policiesENS_3mpl7vector3IvS4_S8_EEN4mpl_4int_ILi0EEEEENS0_3api6objectET_RKT0_RKT1_RKSt4pairIPKNS1_7keywordESU_ET2_
   fun:_ZN5boost6python6detail12def_init_auxINS0_6class_IN3psi17SymmetryOperationENS1_13not_specifiedES6_S6_EENS0_21default_call_policiesENS_3mpl7vector1IRKS5_EENS9_4sizeISD_EEEEvRT_RKT1_T2_RKT0_PKcRKSt4pairIPKNS1_7keywordESU_E
   fun:_Z12export_mintsv
   fun:_Z18init_module_PsiModv
   fun:_ZN5boost6python21handle_exception_implENS_9function0IvEE
   fun:_ZN5boost6python16handle_exceptionIPFvvEEEbT_
   fun:_ZN5boost6python6detail11init_moduleEPKcPFvvE
   fun:_PyImport_FixupExtension
   fun:_PyImport_FixupExtension
}
{
   Boost Python memort leak
   Memcheck:Leak
   fun:malloc
   fun:_Znwm
   fun:_ZN5boost6python7objects15function_objectERKNS1_11py_functionERKSt4pairIPKNS0_6detail7keywordES9_E
   fun:_ZN5boost6python6detail17make_function_auxIMN3psi17SymmetryOperationEKFdvENS0_21default_call_policiesENS_3mpl7vector2IdRS4_EEN4mpl_4int_ILi0EEEEENS0_3api6objectET_RKT0_RKT1_RKSt4pairIPKNS1_7keywordESR_ET2_
   fun:_ZN5boost6python6class_IN3psi17SymmetryOperationENS0_6detail13not_specifiedES5_S5_E8def_implIS3_MS3_KFdvENS4_10def_helperIPKcS5_S5_S5_EEEEvPT_SC_T0_RKT1_z
   fun:_Z12export_mintsv
   fun:_Z18init_module_PsiModv
   fun:_ZN5boost6python21handle_exception_implENS_9function0IvEE
   fun:_ZN5boost6python16handle_exceptionIPFvvEEEbT_
   fun:_ZN5boost6python6detail11init_moduleEPKcPFvvE
   fun:_PyImport_FixupExtension
   fun:_PyImport_FixupExtension
}
{
   Boost Python memort leak
   Memcheck:Leak
   fun:malloc
   fun:_Znwm
   fun:_ZN5boost6python7objects15function_objectERKNS1_11py_functionERKSt4pairIPKNS0_6detail7keywordES9_E
   fun:_ZN5boost6python6detail17make_function_auxIMN3psi17SymmetryOperationEFvvENS0_21default_call_policiesENS_3mpl7vector2IvRS4_EEN4mpl_4int_ILi0EEEEENS0_3api6objectET_RKT0_RKT1_RKSt4pairIPKNS1_7keywordESR_ET2_
   fun:_ZN5boost6python6class_IN3psi17SymmetryOperationENS0_6detail13not_specifiedES5_S5_E8def_implIS3_MS3_FvvENS4_10def_helperIPKcS5_S5_S5_EEEEvPT_SC_T0_RKT1_z
   fun:_Z12export_mintsv
   fun:_Z18init_module_PsiModv
   fun:_ZN5boost6python21handle_exception_implENS_9function0IvEE
   fun:_ZN5boost6python16handle_exceptionIPFvvEEEbT_
   fun:_ZN5boost6python6detail11init_moduleEPKcPFvvE
   fun:_PyImport_FixupExtension
   fun:_PyImport_FixupExtension
}
{
   Boost Python memort leak
   Memcheck:Leak
   fun:malloc
   fun:_Znwm
   fun:_ZN5boost6python7objects15function_objectERKNS1_11py_functionERKSt4pairIPKNS0_6detail7keywordES9_E
   fun:_ZN5boost6python6detail17make_function_auxIMN3psi17SymmetryOperationEKFS4_RKS4_ENS0_21default_call_policiesENS_3mpl7vector3IS4_RS4_S6_EEN4mpl_4int_ILi0EEEEENS0_3api6objectET_RKT0_RKT1_RKSt4pairIPKNS1_7keywordEST_ET2_
   fun:_ZN5boost6python6class_IN3psi17SymmetryOperationENS0_6detail13not_specifiedES5_S5_E8def_implIS3_MS3_KFS3_RKS3_ENS4_10def_helperIPKcS5_S5_S5_EEEEvPT_SE_T0_RKT1_z
   fun:_Z12export_mintsv
   fun:_Z18init_module_PsiModv
   fun:_ZN5boost6python21handle_exception_implENS_9function0IvEE
   fun:_ZN5boost6python16handle_exceptionIPFvvEEEbT_
   fun:_ZN5boost6python6detail11init_moduleEPKcPFvvE
   fun:_PyImport_FixupExtension
   fun:_PyImport_FixupExtension
}
{
   Boost Python memort leak
   Memcheck:Leak
   fun:malloc
   fun:_Znwm
   fun:_ZN5boost6python7objects15function_objectERKNS1_11py_functionERKSt4pairIPKNS0_6detail7keywordES9_E
   fun:_ZN5boost6python6detail17make_function_auxIMN3psi17SymmetryOperationEKFS4_RKS4_ENS0_21default_call_policiesENS_3mpl7vector3IS4_RS4_S6_EEN4mpl_4int_ILi0EEEEENS0_3api6objectET_RKT0_RKT1_RKSt4pairIPKNS1_7keywordEST_ET2_
   fun:_ZN5boost6python6class_IN3psi17SymmetryOperationENS0_6detail13not_specifiedES5_S5_E8def_implIS3_MS3_KFS3_RKS3_ENS4_10def_helperIPKcS5_S5_S5_EEEEvPT_SE_T0_RKT1_z
   fun:_Z12export_mintsv
   fun:_Z18init_module_PsiModv
   fun:_ZN5boost6python21handle_exception_implENS_9function0IvEE
   fun:_ZN5boost6python16handle_exceptionIPFvvEEEbT_
   fun:_ZN5boost6python6detail11init_moduleEPKcPFvvE
   fun:_PyImport_FixupExtension
   fun:_PyImport_FixupExtension
}
{
   Boost Python memort leak
   Memcheck:Leak
   fun:malloc
   fun:_Znwm
   fun:_ZN5boost6python7objects15function_objectERKNS1_11py_functionERKSt4pairIPKNS0_6detail7keywordES9_E
   fun:_ZN5boost6python6detail17make_function_auxIMN3psi17SymmetryOperationEFvvENS0_21default_call_policiesENS_3mpl7vector2IvRS4_EEN4mpl_4int_ILi0EEEEENS0_3api6objectET_RKT0_RKT1_RKSt4pairIPKNS1_7keywordESR_ET2_
   fun:_ZN5boost6python6class_IN3psi17SymmetryOperationENS0_6detail13not_specifiedES5_S5_E8def_implIS3_MS3_FvvENS4_10def_helperIPKcS5_S5_S5_EEEEvPT_SC_T0_RKT1_z
   fun:_Z12export_mintsv
   fun:_Z18init_module_PsiModv
   fun:_ZN5boost6python21handle_exception_implENS_9function0IvEE
   fun:_ZN5boost6python16handle_exceptionIPFvvEEEbT_
   fun:_ZN5boost6python6detail11init_moduleEPKcPFvvE
   fun:_PyImport_FixupExtension
   fun:_PyImport_FixupExtension
}
{
   Boost Python memort leak
   Memcheck:Leak
   fun:malloc
   fun:_Znwm
   fun:_ZN5boost6python7objects15function_objectERKNS1_11py_functionERKSt4pairIPKNS0_6detail7keywordES9_E
   fun:_ZN5boost6python6detail17make_function_auxIMN3psi17SymmetryOperationEFvvENS0_21default_call_policiesENS_3mpl7vector2IvRS4_EEN4mpl_4int_ILi0EEEEENS0_3api6objectET_RKT0_RKT1_RKSt4pairIPKNS1_7keywordESR_ET2_
   fun:_ZN5boost6python6class_IN3psi17SymmetryOperationENS0_6detail13not_specifiedES5_S5_E8def_implIS3_MS3_FvvENS4_10def_helperIPKcS5_S5_S5_EEEEvPT_SC_T0_RKT1_z
   fun:_Z12export_mintsv
   fun:_Z18init_module_PsiModv
   fun:_ZN5boost6python21handle_exception_implENS_9function0IvEE
   fun:_ZN5boost6python16handle_exceptionIPFvvEEEbT_
   fun:_ZN5boost6python6detail11init_moduleEPKcPFvvE
   fun:_PyImport_FixupExtension
   fun:_PyImport_FixupExtension
}
{
   Boost Python memort leak
   Memcheck:Leak
   fun:malloc
   fun:_Znwm
   fun:_ZN5boost6python7objects15function_objectERKNS1_11py_functionERKSt4pairIPKNS0_6detail7keywordES9_E
   fun:_ZN5boost6python6detail17make_function_auxIMN3psi17SymmetryOperationEFvvENS0_21default_call_policiesENS_3mpl7vector2IvRS4_EEN4mpl_4int_ILi0EEEEENS0_3api6objectET_RKT0_RKT1_RKSt4pairIPKNS1_7keywordESR_ET2_
   fun:_ZN5boost6python6class_IN3psi17SymmetryOperationENS0_6detail13not_specifiedES5_S5_E8def_implIS3_MS3_FvvENS4_10def_helperIPKcS5_S5_S5_EEEEvPT_SC_T0_RKT1_z
   fun:_Z12export_mintsv
   fun:_Z18init_module_PsiModv
   fun:_ZN5boost6python21handle_exception_implENS_9function0IvEE
   fun:_ZN5boost6python16handle_exceptionIPFvvEEEbT_
   fun:_ZN5boost6python6detail11init_moduleEPKcPFvvE
   fun:_PyImport_FixupExtension
   fun:_PyImport_FixupExtension
}
{
   Boost Python memort leak
   Memcheck:Leak
   fun:malloc
   fun:_Znwm
   fun:_ZN5boost6python7objects15function_objectERKNS1_11py_functionERKSt4pairIPKNS0_6detail7keywordES9_E
   fun:_ZN5boost6python6detail17make_function_auxIMN3psi17SymmetryOperationEFvvENS0_21default_call_policiesENS_3mpl7vector2IvRS4_EEN4mpl_4int_ILi0EEEEENS0_3api6objectET_RKT0_RKT1_RKSt4pairIPKNS1_7keywordESR_ET2_
   fun:_ZN5boost6python6class_IN3psi17SymmetryOperationENS0_6detail13not_specifiedES5_S5_E8def_implIS3_MS3_FvvENS4_10def_helperIPKcS5_S5_S5_EEEEvPT_SC_T0_RKT1_z
   fun:_Z12export_mintsv
   fun:_Z18init_module_PsiModv
   fun:_ZN5boost6python21handle_exception_implENS_9function0IvEE
   fun:_ZN5boost6python16handle_exceptionIPFvvEEEbT_
   fun:_ZN5boost6python6detail11init_moduleEPKcPFvvE
   fun:_PyImport_FixupExtension
   fun:_PyImport_FixupExtension
}
{
   Boost Python memort leak
   Memcheck:Leak
   fun:malloc
   fun:_Znwm
   fun:_ZN5boost6python7objects15function_objectERKNS1_11py_functionERKSt4pairIPKNS0_6detail7keywordES9_E
   fun:_ZN5boost6python6detail17make_function_auxIMN3psi17SymmetryOperationEFvvENS0_21default_call_policiesENS_3mpl7vector2IvRS4_EEN4mpl_4int_ILi0EEEEENS0_3api6objectET_RKT0_RKT1_RKSt4pairIPKNS1_7keywordESR_ET2_
   fun:_ZN5boost6python6class_IN3psi17SymmetryOperationENS0_6detail13not_specifiedES5_S5_E8def_implIS3_MS3_FvvENS4_10def_helperIPKcS5_S5_S5_EEEEvPT_SC_T0_RKT1_z
   fun:_Z12export_mintsv
   fun:_Z18init_module_PsiModv
   fun:_ZN5boost6python21handle_exception_implENS_9function0IvEE
   fun:_ZN5boost6python16handle_exceptionIPFvvEEEbT_
   fun:_ZN5boost6python6detail11init_moduleEPKcPFvvE
   fun:_PyImport_FixupExtension
   fun:_PyImport_FixupExtension
}
{
   Boost Python memort leak
   Memcheck:Leak
   fun:malloc
   fun:_Znwm
   fun:_ZN5boost6python7objects15function_objectERKNS1_11py_functionERKSt4pairIPKNS0_6detail7keywordES9_E
   fun:_ZN5boost6python6detail17make_function_auxIMN3psi17SymmetryOperationEFviENS0_21default_call_policiesENS_3mpl7vector3IvRS4_iEEN4mpl_4int_ILi0EEEEENS0_3api6objectET_RKT0_RKT1_RKSt4pairIPKNS1_7keywordESR_ET2_
   fun:_ZN5boost6python6class_IN3psi17SymmetryOperationENS0_6detail13not_specifiedES5_S5_E8def_implIS3_MS3_FviENS4_10def_helperIPKcS5_S5_S5_EEEEvPT_SC_T0_RKT1_z
   fun:_Z12export_mintsv
   fun:_Z18init_module_PsiModv
   fun:_ZN5boost6python21handle_exception_implENS_9function0IvEE
   fun:_ZN5boost6python16handle_exceptionIPFvvEEEbT_
   fun:_ZN5boost6python6detail11init_moduleEPKcPFvvE
   fun:_PyImport_FixupExtension
   fun:_PyImport_FixupExtension
}
{
   Boost Python memort leak
   Memcheck:Leak
   fun:malloc
   fun:_Znwm
   fun:_ZN5boost6python7objects15function_objectERKNS1_11py_functionERKSt4pairIPKNS0_6detail7keywordES9_E
   fun:_ZN5boost6python6detail17make_function_auxIMN3psi17SymmetryOperationEFvdENS0_21default_call_policiesENS_3mpl7vector3IvRS4_dEEN4mpl_4int_ILi0EEEEENS0_3api6objectET_RKT0_RKT1_RKSt4pairIPKNS1_7keywordESR_ET2_
   fun:_ZN5boost6python6class_IN3psi17SymmetryOperationENS0_6detail13not_specifiedES5_S5_E8def_implIS3_MS3_FvdENS4_10def_helperIPKcS5_S5_S5_EEEEvPT_SC_T0_RKT1_z
   fun:_Z12export_mintsv
   fun:_Z18init_module_PsiModv
   fun:_ZN5boost6python21handle_exception_implENS_9function0IvEE
   fun:_ZN5boost6python16handle_exceptionIPFvvEEEbT_
   fun:_ZN5boost6python6detail11init_moduleEPKcPFvvE
   fun:_PyImport_FixupExtension
   fun:_PyImport_FixupExtension
}
{
   Boost Python memort leak
   Memcheck:Leak
   fun:malloc
   fun:_Znwm
   fun:_ZN5boost6python7objects15function_objectERKNS1_11py_functionERKSt4pairIPKNS0_6detail7keywordES9_E
   fun:_ZN5boost6python6detail17make_function_auxIMN3psi17SymmetryOperationEFvvENS0_21default_call_policiesENS_3mpl7vector2IvRS4_EEN4mpl_4int_ILi0EEEEENS0_3api6objectET_RKT0_RKT1_RKSt4pairIPKNS1_7keywordESR_ET2_
   fun:_ZN5boost6python6class_IN3psi17SymmetryOperationENS0_6detail13not_specifiedES5_S5_E8def_implIS3_MS3_FvvENS4_10def_helperIPKcS5_S5_S5_EEEEvPT_SC_T0_RKT1_z
   fun:_Z12export_mintsv
   fun:_Z18init_module_PsiModv
   fun:_ZN5boost6python21handle_exception_implENS_9function0IvEE
   fun:_ZN5boost6python16handle_exceptionIPFvvEEEbT_
   fun:_ZN5boost6python6detail11init_moduleEPKcPFvvE
   fun:_PyImport_FixupExtension
   fun:_PyImport_FixupExtension
}
{
   Boost Python memort leak
   Memcheck:Leak
   fun:malloc
   fun:_Znwm
   fun:_ZN5boost6python7objects15function_objectERKNS1_11py_functionERKSt4pairIPKNS0_6detail7keywordES9_E
   fun:_ZN5boost6python6detail17make_function_auxIMN3psi17SymmetryOperationEFvvENS0_21default_call_policiesENS_3mpl7vector2IvRS4_EEN4mpl_4int_ILi0EEEEENS0_3api6objectET_RKT0_RKT1_RKSt4pairIPKNS1_7keywordESR_ET2_
   fun:_ZN5boost6python6class_IN3psi17SymmetryOperationENS0_6detail13not_specifiedES5_S5_E8def_implIS3_MS3_FvvENS4_10def_helperIPKcS5_S5_S5_EEEEvPT_SC_T0_RKT1_z
   fun:_Z12export_mintsv
   fun:_Z18init_module_PsiModv
   fun:_ZN5boost6python21handle_exception_implENS_9function0IvEE
   fun:_ZN5boost6python16handle_exceptionIPFvvEEEbT_
   fun:_ZN5boost6python6detail11init_moduleEPKcPFvvE
   fun:_PyImport_FixupExtension
   fun:_PyImport_FixupExtension
}
{
   Boost Python memort leak
   Memcheck:Leak
   fun:malloc
   fun:_Znwm
   fun:_ZN5boost6python7objects15function_objectERKNS1_11py_functionERKSt4pairIPKNS0_6detail7keywordES9_E
   fun:_ZN5boost6python6detail17make_function_auxIMN3psi17SymmetryOperationEFvvENS0_21default_call_policiesENS_3mpl7vector2IvRS4_EEN4mpl_4int_ILi0EEEEENS0_3api6objectET_RKT0_RKT1_RKSt4pairIPKNS1_7keywordESR_ET2_
   fun:_ZN5boost6python6class_IN3psi17SymmetryOperationENS0_6detail13not_specifiedES5_S5_E8def_implIS3_MS3_FvvENS4_10def_helperIPKcS5_S5_S5_EEEEvPT_SC_T0_RKT1_z
   fun:_Z12export_mintsv
   fun:_Z18init_module_PsiModv
   fun:_ZN5boost6python21handle_exception_implENS_9function0IvEE
   fun:_ZN5boost6python16handle_exceptionIPFvvEEEbT_
   fun:_ZN5boost6python6detail11init_moduleEPKcPFvvE
   fun:_PyImport_FixupExtension
   fun:_PyImport_FixupExtension
}
{
   Boost Python memort leak
   Memcheck:Leak
   fun:malloc
   fun:_Znwm
   fun:_ZN5boost6python7objects15function_objectERKNS1_11py_functionERKSt4pairIPKNS0_6detail7keywordES9_E
   fun:_ZN5boost6python6detail17make_function_auxIPFvP7_objectENS0_21default_call_policiesENS_3mpl7vector2IvS4_EEN4mpl_4int_ILi0EEEEENS0_3api6objectET_RKT0_RKT1_RKSt4pairIPKNS1_7keywordESQ_ET2_
   fun:_ZN5boost6python6detail12def_init_auxINS0_6class_IN3psi10PointGroupENS_10shared_ptrIS5_EENS1_13not_specifiedES8_EENS0_21default_call_policiesENS_3mpl7vector0IN4mpl_2naEEENSB_4sizeISF_EEEEvRT_RKT1_T2_RKT0_PKcRKSt4pairIPKNS1_7keywordESW_E
   fun:_ZN5boost6python6class_IN3psi10PointGroupENS_10shared_ptrIS3_EENS0_6detail13not_specifiedES7_EC2EPKcSA_
   fun:_Z12export_mintsv
   fun:_Z18init_module_PsiModv
   fun:_ZN5boost6python21handle_exception_implENS_9function0IvEE
   fun:_ZN5boost6python16handle_exceptionIPFvvEEEbT_
   fun:_ZN5boost6python6detail11init_moduleEPKcPFvvE
   fun:_PyImport_FixupExtension
}
{
   Boost Python memort leak
   Memcheck:Leak
   fun:malloc
   fun:_Znwm
   fun:_ZN5boost6python7objects15function_objectERKNS1_11py_functionERKSt4pairIPKNS0_6detail7keywordES9_E
   fun:_ZN5boost6python6detail17make_function_auxIPFvP7_objectPKcENS0_21default_call_policiesENS_3mpl7vector3IvS4_S6_EEN4mpl_4int_ILi0EEEEENS0_3api6objectET_RKT0_RKT1_RKSt4pairIPKNS1_7keywordESS_ET2_
   fun:_ZN5boost6python6detail12def_init_auxINS0_6class_IN3psi10PointGroupENS_10shared_ptrIS5_EENS1_13not_specifiedES8_EENS0_21default_call_policiesENS_3mpl7vector1IPKcEENSB_4sizeISF_EEEEvRT_RKT1_T2_RKT0_SE_RKSt4pairIPKNS1_7keywordESU_E
   fun:_Z12export_mintsv
   fun:_Z18init_module_PsiModv
   fun:_ZN5boost6python21handle_exception_implENS_9function0IvEE
   fun:_ZN5boost6python16handle_exceptionIPFvvEEEbT_
   fun:_ZN5boost6python6detail11init_moduleEPKcPFvvE
   fun:_PyImport_FixupExtension
   fun:_PyImport_FixupExtension
}
{
   Boost Python memort leak
   Memcheck:Leak
   fun:malloc
   fun:_Znwm
   fun:_ZN5boost6python7objects15function_objectERKNS1_11py_functionERKSt4pairIPKNS0_6detail7keywordES9_E
   fun:_ZN5boost6python6detail17make_function_auxIMN3psi10PointGroupEKFPKcvENS0_21default_call_policiesENS_3mpl7vector2IS6_RS4_EEN4mpl_4int_ILi0EEEEENS0_3api6objectET_RKT0_RKT1_RKSt4pairIPKNS1_7keywordEST_ET2_
   fun:_ZN5boost6python6class_IN3psi10PointGroupENS_10shared_ptrIS3_EENS0_6detail13not_specifiedES7_E8def_implIS3_MS3_KFPKcvENS6_10def_helperISB_S7_S7_S7_EEEEvPT_SB_T0_RKT1_z
   fun:_Z12export_mintsv
   fun:_Z18init_module_PsiModv
   fun:_ZN5boost6python21handle_exception_implENS_9function0IvEE
   fun:_ZN5boost6python16handle_exceptionIPFvvEEEbT_
   fun:_ZN5boost6python6detail11init_moduleEPKcPFvvE
   fun:_PyImport_FixupExtension
   fun:_PyImport_FixupExtension
}
{
   Boost Python memort leak
   Memcheck:Leak
   fun:malloc
   fun:_Znwm
   fun:_ZN5boost6python7objects15function_objectERKNS1_11py_functionERKSt4pairIPKNS0_6detail7keywordES9_E
   fun:_ZN5boost6python6detail17make_function_auxIMN3psi10PointGroupEFvPKcENS0_21default_call_policiesENS_3mpl7vector3IvRS4_S6_EEN4mpl_4int_ILi0EEEEENS0_3api6objectET_RKT0_RKT1_RKSt4pairIPKNS1_7keywordEST_ET2_
   fun:_ZN5boost6python6class_IN3psi10PointGroupENS_10shared_ptrIS3_EENS0_6detail13not_specifiedES7_E8def_implIS3_MS3_FvPKcENS6_10def_helperISB_S7_S7_S7_EEEEvPT_SB_T0_RKT1_z
   fun:_Z12export_mintsv
   fun:_Z18init_module_PsiModv
   fun:_ZN5boost6python21handle_exception_implENS_9function0IvEE
   fun:_ZN5boost6python16handle_exceptionIPFvvEEEbT_
   fun:_ZN5boost6python6detail11init_moduleEPKcPFvvE
   fun:_PyImport_FixupExtension
   fun:_PyImport_FixupExtension
}
{
   Boost Python memort leak
   Memcheck:Leak
   fun:malloc
   fun:_Znwm
   fun:_ZN5boost6python7objects15function_objectERKNS1_11py_functionERKSt4pairIPKNS0_6detail7keywordES9_E
   fun:_ZN5boost6python6detail17make_function_auxIPFvP7_objectENS0_21default_call_policiesENS_3mpl7vector2IvS4_EEN4mpl_4int_ILi0EEEEENS0_3api6objectET_RKT0_RKT1_RKSt4pairIPKNS1_7keywordESQ_ET2_
   fun:_ZN5boost6python6detail12def_init_auxINS0_6class_IN3psi24Gaussian94BasisSetParserENS_10shared_ptrIS5_EENS0_5basesINS4_14BasisSetParserEN4mpl_5void_ESB_SB_SB_SB_SB_SB_SB_SB_EENS1_13not_specifiedEEENS0_21default_call_policiesENS_3mpl7vector0INSA_2naEEENSG_4sizeISJ_EEEEvRT_RKT1_T2_RKT0_PKcRKSt4pairIPKNS1_7keywordES10_E
   fun:_ZN5boost6python6class_IN3psi24Gaussian94BasisSetParserENS_10shared_ptrIS3_EENS0_5basesINS2_14BasisSetParserEN4mpl_5void_ES9_S9_S9_S9_S9_S9_S9_S9_EENS0_6detail13not_specifiedEEC2EPKcSF_
   fun:_Z12export_mintsv
   fun:_Z18init_module_PsiModv
   fun:_ZN5boost6python21handle_exception_implENS_9function0IvEE
   fun:_ZN5boost6python16handle_exceptionIPFvvEEEbT_
   fun:_ZN5boost6python6detail11init_moduleEPKcPFvvE
   fun:_PyImport_FixupExtension
}
{
   Boost Python memort leak
   Memcheck:Leak
   fun:malloc
   fun:_Znwm
   fun:_ZN5boost6python7objects15function_objectERKNS1_11py_functionERKSt4pairIPKNS0_6detail7keywordES9_E
   fun:_ZN5boost6python6detail17make_function_auxIPFvP7_objectENS0_21default_call_policiesENS_3mpl7vector2IvS4_EEN4mpl_4int_ILi0EEEEENS0_3api6objectET_RKT0_RKT1_RKSt4pairIPKNS1_7keywordESQ_ET2_
   fun:_ZN5boost6python6detail12def_init_auxINS0_6class_IN3psi17ExternalPotentialENS_10shared_ptrIS5_EENS_12noncopyable_11noncopyableENS1_13not_specifiedEEENS0_21default_call_policiesENS_3mpl7vector0IN4mpl_2naEEENSD_4sizeISH_EEEEvRT_RKT1_T2_RKT0_PKcRKSt4pairIPKNS1_7keywordESY_E
   fun:_ZN5boost6python6class_IN3psi17ExternalPotentialENS_10shared_ptrIS3_EENS_12noncopyable_11noncopyableENS0_6detail13not_specifiedEEC2EPKcSC_
   fun:_Z12export_mintsv
   fun:_Z18init_module_PsiModv
   fun:_ZN5boost6python21handle_exception_implENS_9function0IvEE
   fun:_ZN5boost6python16handle_exceptionIPFvvEEEbT_
   fun:_ZN5boost6python6detail11init_moduleEPKcPFvvE
   fun:_PyImport_FixupExtension
}
{
   Boost Python memort leak
   Memcheck:Leak
   fun:malloc
   fun:_Znwm
   fun:_ZN5boost6python7objects15function_objectERKNS1_11py_functionERKSt4pairIPKNS0_6detail7keywordES9_E
   fun:_ZN5boost6python6detail17make_function_auxIMN3psi17ExternalPotentialEFvRKSsENS0_21default_call_policiesENS_3mpl7vector3IvRS4_S6_EEN4mpl_4int_ILi0EEEEENS0_3api6objectET_RKT0_RKT1_RKSt4pairIPKNS1_7keywordEST_ET2_
   fun:_ZN5boost6python6class_IN3psi17ExternalPotentialENS_10shared_ptrIS3_EENS_12noncopyable_11noncopyableENS0_6detail13not_specifiedEE8def_implIS3_MS3_FvRKSsENS8_10def_helperIPKcS9_S9_S9_EEEEvPT_SI_T0_RKT1_z
   fun:_Z12export_mintsv
   fun:_Z18init_module_PsiModv
   fun:_ZN5boost6python21handle_exception_implENS_9function0IvEE
   fun:_ZN5boost6python16handle_exceptionIPFvvEEEbT_
   fun:_ZN5boost6python6detail11init_moduleEPKcPFvvE
   fun:_PyImport_FixupExtension
   fun:_PyImport_FixupExtension
}
{
   Boost Python memort leak
   Memcheck:Leak
   fun:malloc
   fun:_Znwm
   fun:_ZN5boost6python7objects15function_objectERKNS1_11py_functionERKSt4pairIPKNS0_6detail7keywordES9_E
   fun:_ZN5boost6python6detail17make_function_auxIMN3psi17ExternalPotentialEFvddddENS0_21default_call_policiesENS_3mpl7vector6IvRS4_ddddEEN4mpl_4int_ILi0EEEEENS0_3api6objectET_RKT0_RKT1_RKSt4pairIPKNS1_7keywordESR_ET2_
   fun:_ZN5boost6python6class_IN3psi17ExternalPotentialENS_10shared_ptrIS3_EENS_12noncopyable_11noncopyableENS0_6detail13not_specifiedEE8def_implIS3_MS3_FvddddENS8_10def_helperIPKcS9_S9_S9_EEEEvPT_SG_T0_RKT1_z
   fun:_Z12export_mintsv
   fun:_Z18init_module_PsiModv
   fun:_ZN5boost6python21handle_exception_implENS_9function0IvEE
   fun:_ZN5boost6python16handle_exceptionIPFvvEEEbT_
   fun:_ZN5boost6python6detail11init_moduleEPKcPFvvE
   fun:_PyImport_FixupExtension
   fun:_PyImport_FixupExtension
}
{
   Boost Python memort leak
   Memcheck:Leak
   fun:malloc
   fun:_Znwm
   fun:_ZN5boost6python7objects15function_objectERKNS1_11py_functionERKSt4pairIPKNS0_6detail7keywordES9_E
   fun:_ZN5boost6python6detail17make_function_auxIMN3psi17ExternalPotentialEFvddddddENS0_21default_call_policiesENS_3mpl7vector8IvRS4_ddddddEEN4mpl_4int_ILi0EEEEENS0_3api6objectET_RKT0_RKT1_RKSt4pairIPKNS1_7keywordESR_ET2_
   fun:_ZN5boost6python6class_IN3psi17ExternalPotentialENS_10shared_ptrIS3_EENS_12noncopyable_11noncopyableENS0_6detail13not_specifiedEE8def_implIS3_MS3_FvddddddENS8_10def_helperIPKcS9_S9_S9_EEEEvPT_SG_T0_RKT1_z
   fun:_Z12export_mintsv
   fun:_Z18init_module_PsiModv
   fun:_ZN5boost6python21handle_exception_implENS_9function0IvEE
   fun:_ZN5boost6python16handle_exceptionIPFvvEEEbT_
   fun:_ZN5boost6python6detail11init_moduleEPKcPFvvE
   fun:_PyImport_FixupExtension
   fun:_PyImport_FixupExtension
}
{
   Boost Python memort leak
   Memcheck:Leak
   fun:malloc
   fun:_Znwm
   fun:_ZN5boost6python7objects15function_objectERKNS1_11py_functionERKSt4pairIPKNS0_6detail7keywordES9_E
   fun:_ZN5boost6python6detail17make_function_auxIMN3psi17ExternalPotentialEFvdddddddddENS0_21default_call_policiesENS_3mpl8vector11IvRS4_dddddddddEEN4mpl_4int_ILi0EEEEENS0_3api6objectET_RKT0_RKT1_RKSt4pairIPKNS1_7keywordESR_ET2_
   fun:_ZN5boost6python6class_IN3psi17ExternalPotentialENS_10shared_ptrIS3_EENS_12noncopyable_11noncopyableENS0_6detail13not_specifiedEE8def_implIS3_MS3_FvdddddddddENS8_10def_helperIPKcS9_S9_S9_EEEEvPT_SG_T0_RKT1_z
   fun:_Z12export_mintsv
   fun:_Z18init_module_PsiModv
   fun:_ZN5boost6python21handle_exception_implENS_9function0IvEE
   fun:_ZN5boost6python16handle_exceptionIPFvvEEEbT_
   fun:_ZN5boost6python6detail11init_moduleEPKcPFvvE
   fun:_PyImport_FixupExtension
   fun:_PyImport_FixupExtension
}
{
   Boost Python memort leak
   Memcheck:Leak
   fun:malloc
   fun:_Znwm
   fun:_ZN5boost6python7objects15function_objectERKNS1_11py_functionERKSt4pairIPKNS0_6detail7keywordES9_E
   fun:_ZN5boost6python6detail17make_function_auxIMN3psi17ExternalPotentialEFvdddENS0_21default_call_policiesENS_3mpl7vector5IvRS4_dddEEN4mpl_4int_ILi0EEEEENS0_3api6objectET_RKT0_RKT1_RKSt4pairIPKNS1_7keywordESR_ET2_
   fun:_ZN5boost6python6class_IN3psi17ExternalPotentialENS_10shared_ptrIS3_EENS_12noncopyable_11noncopyableENS0_6detail13not_specifiedEE8def_implIS3_MS3_FvdddENS8_10def_helperIPKcS9_S9_S9_EEEEvPT_SG_T0_RKT1_z
   fun:_Z12export_mintsv
   fun:_Z18init_module_PsiModv
   fun:_ZN5boost6python21handle_exception_implENS_9function0IvEE
   fun:_ZN5boost6python16handle_exceptionIPFvvEEEbT_
   fun:_ZN5boost6python6detail11init_moduleEPKcPFvvE
   fun:_PyImport_FixupExtension
   fun:_PyImport_FixupExtension
}
{
   Boost Python memort leak
   Memcheck:Leak
   fun:malloc
   fun:_Znwm
   fun:_ZN5boost6python7objects15function_objectERKNS1_11py_functionERKSt4pairIPKNS0_6detail7keywordES9_E
   fun:_ZN5boost6python6detail17make_function_auxIMN3psi17ExternalPotentialEFvNS_10shared_ptrINS3_6MatrixEEEENS0_21default_call_policiesENS_3mpl7vector3IvRS4_S7_EEN4mpl_4int_ILi0EEEEENS0_3api6objectET_RKT0_RKT1_RKSt4pairIPKNS1_7keywordESU_ET2_
   fun:_ZN5boost6python6class_IN3psi17ExternalPotentialENS_10shared_ptrIS3_EENS_12noncopyable_11noncopyableENS0_6detail13not_specifiedEE8def_implIS3_MS3_FvNS4_INS2_6MatrixEEEENS8_10def_helperIPKcS9_S9_S9_EEEEvPT_SI_T0_RKT1_z
   fun:_Z12export_mintsv
   fun:_Z18init_module_PsiModv
   fun:_ZN5boost6python21handle_exception_implENS_9function0IvEE
   fun:_ZN5boost6python16handle_exceptionIPFvvEEEbT_
   fun:_ZN5boost6python6detail11init_moduleEPKcPFvvE
   fun:_PyImport_FixupExtension
   fun:_PyImport_FixupExtension
}
{
   Boost Python memort leak
   Memcheck:Leak
   fun:malloc
   fun:_Znwm
   fun:_ZN5boost6python7objects15function_objectERKNS1_11py_functionERKSt4pairIPKNS0_6detail7keywordES9_E
   fun:_ZN5boost6python6detail17make_function_auxIMN3psi17ExternalPotentialEFvvENS0_21default_call_policiesENS_3mpl7vector2IvRS4_EEN4mpl_4int_ILi0EEEEENS0_3api6objectET_RKT0_RKT1_RKSt4pairIPKNS1_7keywordESR_ET2_
   fun:_ZN5boost6python6class_IN3psi17ExternalPotentialENS_10shared_ptrIS3_EENS_12noncopyable_11noncopyableENS0_6detail13not_specifiedEE8def_implIS3_MS3_FvvENS8_10def_helperIPKcS9_S9_S9_EEEEvPT_SG_T0_RKT1_z
   fun:_Z12export_mintsv
   fun:_Z18init_module_PsiModv
   fun:_ZN5boost6python21handle_exception_implENS_9function0IvEE
   fun:_ZN5boost6python16handle_exceptionIPFvvEEEbT_
   fun:_ZN5boost6python6detail11init_moduleEPKcPFvvE
   fun:_PyImport_FixupExtension
   fun:_PyImport_FixupExtension
}
{
   Boost Python memort leak
   Memcheck:Leak
   fun:malloc
   fun:_Znwm
   fun:_ZN5boost6python7objects15function_objectERKNS1_11py_functionERKSt4pairIPKNS0_6detail7keywordES9_E
   fun:_ZN5boost6python6detail17make_function_auxIMN3psi17ExternalPotentialEFNS_10shared_ptrINS3_6MatrixEEENS5_INS3_8BasisSetEEEENS0_21default_call_policiesENS_3mpl7vector3IS7_RS4_S9_EEN4mpl_4int_ILi0EEEEENS0_3api6objectET_RKT0_RKT1_RKSt4pairIPKNS1_7keywordESW_ET2_
   fun:_ZN5boost6python6class_IN3psi17ExternalPotentialENS_10shared_ptrIS3_EENS_12noncopyable_11noncopyableENS0_6detail13not_specifiedEE8def_implIS3_MS3_FNS4_INS2_6MatrixEEENS4_INS2_8BasisSetEEEENS8_10def_helperIPKcS9_S9_S9_EEEEvPT_SK_T0_RKT1_z
   fun:_Z12export_mintsv
   fun:_Z18init_module_PsiModv
   fun:_ZN5boost6python21handle_exception_implENS_9function0IvEE
   fun:_ZN5boost6python16handle_exceptionIPFvvEEEbT_
   fun:_ZN5boost6python6detail11init_moduleEPKcPFvvE
   fun:_PyImport_FixupExtension
   fun:_PyImport_FixupExtension
}
{
   Boost Python memort leak
   Memcheck:Leak
   fun:malloc
   fun:_Znwm
   fun:_ZN5boost6python7objects15function_objectERKNS1_11py_functionERKSt4pairIPKNS0_6detail7keywordES9_E
   fun:_ZN5boost6python6detail17make_function_auxIMN3psi17ExternalPotentialEFddddENS0_21default_call_policiesENS_3mpl7vector5IdRS4_dddEEN4mpl_4int_ILi0EEEEENS0_3api6objectET_RKT0_RKT1_RKSt4pairIPKNS1_7keywordESR_ET2_
   fun:_ZN5boost6python6class_IN3psi17ExternalPotentialENS_10shared_ptrIS3_EENS_12noncopyable_11noncopyableENS0_6detail13not_specifiedEE8def_implIS3_MS3_FddddENS8_10def_helperIPKcS9_S9_S9_EEEEvPT_SG_T0_RKT1_z
   fun:_Z12export_mintsv
   fun:_Z18init_module_PsiModv
   fun:_ZN5boost6python21handle_exception_implENS_9function0IvEE
   fun:_ZN5boost6python16handle_exceptionIPFvvEEEbT_
   fun:_ZN5boost6python6detail11init_moduleEPKcPFvvE
   fun:_PyImport_FixupExtension
   fun:_PyImport_FixupExtension
}
{
   Boost Python memort leak
   Memcheck:Leak
   fun:malloc
   fun:_Znwm
   fun:_ZN5boost6python7objects15function_objectERKNS1_11py_functionERKSt4pairIPKNS0_6detail7keywordES9_E
   fun:_ZN5boost6python6detail17make_function_auxIMN3psi17ExternalPotentialEKFvvENS0_21default_call_policiesENS_3mpl7vector2IvRS4_EEN4mpl_4int_ILi0EEEEENS0_3api6objectET_RKT0_RKT1_RKSt4pairIPKNS1_7keywordESR_ET2_
   fun:_ZN5boost6python6class_IN3psi17ExternalPotentialENS_10shared_ptrIS3_EENS_12noncopyable_11noncopyableENS0_6detail13not_specifiedEE8def_implIS3_MS3_KFvvENS8_10def_helperIPKcS9_S9_S9_EEEEvPT_SG_T0_RKT1_z
   fun:_Z12export_mintsv
   fun:_Z18init_module_PsiModv
   fun:_ZN5boost6python21handle_exception_implENS_9function0IvEE
   fun:_ZN5boost6python16handle_exceptionIPFvvEEEbT_
   fun:_ZN5boost6python6detail11init_moduleEPKcPFvvE
   fun:_PyImport_FixupExtension
   fun:_PyImport_FixupExtension
}
{
   Boost Python memort leak
   Memcheck:Leak
   fun:malloc
   fun:_Znwm
   fun:_ZN5boost6python7objects15function_objectERKNS1_11py_functionERKSt4pairIPKNS0_6detail7keywordES9_E
   fun:_ZN5boost6python6detail17make_function_auxIPFvP7_objectNS_10shared_ptrIN3psi12WavefunctionEEEENS0_21default_call_policiesENS_3mpl7vector3IvS4_S8_EEN4mpl_4int_ILi0EEEEENS0_3api6objectET_RKT0_RKT1_RKSt4pairIPKNS1_7keywordESU_ET2_
   fun:_ZN5boost6python6detail12def_init_auxINS0_6class_IN3psi12MoldenWriterENS_10shared_ptrIS5_EENS1_13not_specifiedES8_EENS0_21default_call_policiesENS_3mpl7vector1INS6_INS4_12WavefunctionEEEEENSB_4sizeISF_EEEEvRT_RKT1_T2_RKT0_PKcRKSt4pairIPKNS1_7keywordESW_E
   fun:_Z12export_mintsv
   fun:_Z18init_module_PsiModv
   fun:_ZN5boost6python21handle_exception_implENS_9function0IvEE
   fun:_ZN5boost6python16handle_exceptionIPFvvEEEbT_
   fun:_ZN5boost6python6detail11init_moduleEPKcPFvvE
   fun:_PyImport_FixupExtension
   fun:_PyImport_FixupExtension
}
{
   Boost Python memort leak
   Memcheck:Leak
   fun:malloc
   fun:_Znwm
   fun:_ZN5boost6python7objects15function_objectERKNS1_11py_functionERKSt4pairIPKNS0_6detail7keywordES9_E
   fun:_ZN5boost6python6detail17make_function_auxIMN3psi12MoldenWriterEFvRKSsENS0_21default_call_policiesENS_3mpl7vector3IvRS4_S6_EEN4mpl_4int_ILi0EEEEENS0_3api6objectET_RKT0_RKT1_RKSt4pairIPKNS1_7keywordEST_ET2_
   fun:_ZN5boost6python6class_IN3psi12MoldenWriterENS_10shared_ptrIS3_EENS0_6detail13not_specifiedES7_E8def_implIS3_MS3_FvRKSsENS6_10def_helperIPKcS7_S7_S7_EEEEvPT_SG_T0_RKT1_z
   fun:_Z12export_mintsv
   fun:_Z18init_module_PsiModv
   fun:_ZN5boost6python21handle_exception_implENS_9function0IvEE
   fun:_ZN5boost6python16handle_exceptionIPFvvEEEbT_
   fun:_ZN5boost6python6detail11init_moduleEPKcPFvvE
   fun:_PyImport_FixupExtension
   fun:_PyImport_FixupExtension
}
{
   Boost Python memort leak
   Memcheck:Leak
   fun:malloc
   fun:_Znwm
   fun:_ZN5boost6python7objects15function_objectERKNS1_11py_functionERKSt4pairIPKNS0_6detail7keywordES9_E
   fun:_ZN5boost6python6detail17make_function_auxIPFvP7_objectNS_10shared_ptrIN3psi12WavefunctionEEEENS0_21default_call_policiesENS_3mpl7vector3IvS4_S8_EEN4mpl_4int_ILi0EEEEENS0_3api6objectET_RKT0_RKT1_RKSt4pairIPKNS1_7keywordESU_ET2_
   fun:_ZN5boost6python6detail12def_init_auxINS0_6class_IN3psi9NBOWriterENS_10shared_ptrIS5_EENS1_13not_specifiedES8_EENS0_21default_call_policiesENS_3mpl7vector1INS6_INS4_12WavefunctionEEEEENSB_4sizeISF_EEEEvRT_RKT1_T2_RKT0_PKcRKSt4pairIPKNS1_7keywordESW_E
   fun:_Z12export_mintsv
   fun:_Z18init_module_PsiModv
   fun:_ZN5boost6python21handle_exception_implENS_9function0IvEE
   fun:_ZN5boost6python16handle_exceptionIPFvvEEEbT_
   fun:_ZN5boost6python6detail11init_moduleEPKcPFvvE
   fun:_PyImport_FixupExtension
   fun:_PyImport_FixupExtension
}
{
   Boost Python memort leak
   Memcheck:Leak
   fun:malloc
   fun:_Znwm
   fun:_ZN5boost6python7objects15function_objectERKNS1_11py_functionERKSt4pairIPKNS0_6detail7keywordES9_E
   fun:_ZN5boost6python6detail17make_function_auxIMN3psi9NBOWriterEFvRKSsENS0_21default_call_policiesENS_3mpl7vector3IvRS4_S6_EEN4mpl_4int_ILi0EEEEENS0_3api6objectET_RKT0_RKT1_RKSt4pairIPKNS1_7keywordEST_ET2_
   fun:_ZN5boost6python6class_IN3psi9NBOWriterENS_10shared_ptrIS3_EENS0_6detail13not_specifiedES7_E8def_implIS3_MS3_FvRKSsENS6_10def_helperIPKcS7_S7_S7_EEEEvPT_SG_T0_RKT1_z
   fun:_Z12export_mintsv
   fun:_Z18init_module_PsiModv
   fun:_ZN5boost6python21handle_exception_implENS_9function0IvEE
   fun:_ZN5boost6python16handle_exceptionIPFvvEEEbT_
   fun:_ZN5boost6python6detail11init_moduleEPKcPFvvE
   fun:_PyImport_FixupExtension
   fun:_PyImport_FixupExtension
}
{
   Boost Python memort leak
   Memcheck:Leak
   fun:malloc
   fun:_Znwm
   fun:_ZN5boost6python7objects15function_objectERKNS1_11py_functionERKSt4pairIPKNS0_6detail7keywordES9_E
   fun:_ZN5boost6python6detail17make_function_auxIPFvP7_objectiRKNS_10shared_ptrIN3psi8MoleculeEEERKNS5_INS6_15IntegralFactoryEEERKNS5_INS6_13MatrixFactoryEEEENS0_21default_call_policiesENS_3mpl7vector6IvS4_iSA_SE_SI_EEN4mpl_4int_ILi0EEEEENS0_3api6objectET_RKT0_RKT1_RKSt4pairIPKNS1_7keywordES14_ET2_
   fun:_ZN5boost6python6detail12def_init_auxINS0_6class_IN3psi16OperatorSymmetryENS_10shared_ptrIS5_EENS1_13not_specifiedES8_EENS0_21default_call_policiesENS_3mpl7vector4IiRKNS6_INS4_8MoleculeEEERKNS6_INS4_15IntegralFactoryEEERKNS6_INS4_13MatrixFactoryEEEEENSB_4sizeISP_EEEEvRT_RKT1_T2_RKT0_PKcRKSt4pairIPKNS1_7keywordES16_E
   fun:_Z12export_mintsv
   fun:_Z18init_module_PsiModv
   fun:_ZN5boost6python21handle_exception_implENS_9function0IvEE
   fun:_ZN5boost6python16handle_exceptionIPFvvEEEbT_
   fun:_ZN5boost6python6detail11init_moduleEPKcPFvvE
   fun:_PyImport_FixupExtension
   fun:_PyImport_FixupExtension
}
{
   Boost Python memort leak
   Memcheck:Leak
   fun:malloc
   fun:_Znwm
   fun:_ZN5boost6python7objects15function_objectERKNS1_11py_functionERKSt4pairIPKNS0_6detail7keywordES9_E
   fun:_ZN5boost6python6detail17make_function_auxIMN3psi16OperatorSymmetryEFSt6vectorINS_10shared_ptrINS3_6MatrixEEESaIS8_EERKSsENS0_21default_call_policiesENS_3mpl7vector3ISA_RS4_SC_EEN4mpl_4int_ILi0EEEEENS0_3api6objectET_RKT0_RKT1_RKSt4pairIPKNS1_7keywordESZ_ET2_
   fun:_ZN5boost6python6class_IN3psi16OperatorSymmetryENS_10shared_ptrIS3_EENS0_6detail13not_specifiedES7_E8def_implIS3_MS3_FSt6vectorINS4_INS2_6MatrixEEESaISC_EERKSsENS6_10def_helperIPKcS7_S7_S7_EEEEvPT_SL_T0_RKT1_z
   fun:_Z12export_mintsv
   fun:_Z18init_module_PsiModv
   fun:_ZN5boost6python21handle_exception_implENS_9function0IvEE
   fun:_ZN5boost6python16handle_exceptionIPFvvEEEbT_
   fun:_ZN5boost6python6detail11init_moduleEPKcPFvvE
   fun:_PyImport_FixupExtension
   fun:_PyImport_FixupExtension
}
{
   Boost Python memort leak
   Memcheck:Leak
   fun:malloc
   fun:_Znwm
   fun:_ZN5boost6python7objects15function_objectERKNS1_11py_functionERKSt4pairIPKNS0_6detail7keywordES9_E
   fun:_ZN5boost6python6detail17make_function_auxIPFvP7_objectENS0_21default_call_policiesENS_3mpl7vector2IvS4_EEN4mpl_4int_ILi0EEEEENS0_3api6objectET_RKT0_RKT1_RKSt4pairIPKNS1_7keywordESQ_ET2_
   fun:_ZN5boost6python6detail12def_init_auxINS0_6class_IN3psi7Process11EnvironmentENS1_13not_specifiedES7_S7_EENS0_21default_call_policiesENS_3mpl7vector0IN4mpl_2naEEENSA_4sizeISE_EEEEvRT_RKT1_T2_RKT0_PKcRKSt4pairIPKNS1_7keywordESV_E
   fun:_ZN5boost6python6class_IN3psi7Process11EnvironmentENS0_6detail13not_specifiedES6_S6_EC2EPKcS9_
   fun:_Z18init_module_PsiModv
   fun:_ZN5boost6python21handle_exception_implENS_9function0IvEE
   fun:_ZN5boost6python16handle_exceptionIPFvvEEEbT_
   fun:_ZN5boost6python6detail11init_moduleEPKcPFvvE
   fun:_PyImport_FixupExtension
   fun:_PyImport_FixupExtension
}
{
   Boost Python memort leak
   Memcheck:Leak
   fun:malloc
   fun:_Znwm
   fun:_ZN5boost6python7objects15function_objectERKNS1_11py_functionERKSt4pairIPKNS0_6detail7keywordES9_E
   fun:_ZN5boost6python6detail17make_function_auxIMN3psi7Process11EnvironmentEFSsRKSsENS0_21default_call_policiesENS_3mpl7vector3ISsRS5_S7_EEN4mpl_4int_ILi0EEEEENS0_3api6objectET_RKT0_RKT1_RKSt4pairIPKNS1_7keywordESU_ET2_
   fun:_ZN5boost6python6class_IN3psi7Process11EnvironmentENS0_6detail13not_specifiedES6_S6_E8def_implIS4_MS4_FSsRKSsENS5_10def_helperIPKcS6_S6_S6_EEEEvPT_SF_T0_RKT1_z
   fun:_Z18init_module_PsiModv
   fun:_ZN5boost6python21handle_exception_implENS_9function0IvEE
   fun:_ZN5boost6python16handle_exceptionIPFvvEEEbT_
   fun:_ZN5boost6python6detail11init_moduleEPKcPFvvE
   fun:_PyImport_FixupExtension
   fun:_PyImport_FixupExtension
   fun:PyImport_ReloadModule
}
{
   Boost Python memort leak
   Memcheck:Leak
   fun:malloc
   fun:_Znwm
   fun:_ZN5boost6python7objects15function_objectERKNS1_11py_functionERKSt4pairIPKNS0_6detail7keywordES9_E
   fun:_ZN5boost6python6detail17make_function_auxIPFvP7_objectENS0_21default_call_policiesENS_3mpl7vector2IvS4_EEN4mpl_4int_ILi0EEEEENS0_3api6objectET_RKT0_RKT1_RKSt4pairIPKNS1_7keywordESQ_ET2_
   fun:_ZN5boost6python6detail12def_init_auxINS0_6class_IN3psi7Process9ArgumentsENS1_13not_specifiedES7_S7_EENS0_21default_call_policiesENS_3mpl7vector0IN4mpl_2naEEENSA_4sizeISE_EEEEvRT_RKT1_T2_RKT0_PKcRKSt4pairIPKNS1_7keywordESV_E
   fun:_ZN5boost6python6class_IN3psi7Process9ArgumentsENS0_6detail13not_specifiedES6_S6_EC2EPKcS9_
   fun:_Z18init_module_PsiModv
   fun:_ZN5boost6python21handle_exception_implENS_9function0IvEE
   fun:_ZN5boost6python16handle_exceptionIPFvvEEEbT_
   fun:_ZN5boost6python6detail11init_moduleEPKcPFvvE
   fun:_PyImport_FixupExtension
   fun:_PyImport_FixupExtension
}
{
   Boost Python memort leak
   Memcheck:Leak
   fun:malloc
   fun:_Znwm
   fun:_ZN5boost6python7objects15function_objectERKNS1_11py_functionERKSt4pairIPKNS0_6detail7keywordES9_E
   fun:_ZN5boost6python6detail17make_function_auxIMN3psi7Process9ArgumentsEFSsiENS0_21default_call_policiesENS_3mpl7vector3ISsRS5_iEEN4mpl_4int_ILi0EEEEENS0_3api6objectET_RKT0_RKT1_RKSt4pairIPKNS1_7keywordESS_ET2_
   fun:_ZN5boost6python6class_IN3psi7Process9ArgumentsENS0_6detail13not_specifiedES6_S6_E8def_implIS4_MS4_FSsiENS5_10def_helperIPKcS6_S6_S6_EEEEvPT_SD_T0_RKT1_z
   fun:_Z18init_module_PsiModv
   fun:_ZN5boost6python21handle_exception_implENS_9function0IvEE
   fun:_ZN5boost6python16handle_exceptionIPFvvEEEbT_
   fun:_ZN5boost6python6detail11init_moduleEPKcPFvvE
   fun:_PyImport_FixupExtension
   fun:_PyImport_FixupExtension
   fun:PyImport_ReloadModule
}
{
   Boost Python memort leak
   Memcheck:Leak
   fun:malloc
   fun:_PyObject_GC_Malloc
   fun:PyType_GenericAlloc
   fun:PyDict_Contains
   fun:PyType_Modified
   fun:PyObject_Call
   fun:PyObject_CallMethodObjArgs
   fun:PyObject_CallFunction
   fun:_ZN5boost6python6detail9dict_baseC2ERKNS0_3api6objectE
   fun:_ZN5boost6python4dictC1INS0_6handleI7_objectEEEERKT_
   fun:_ZN5boost6python7objects10class_base18make_method_staticEPKc
   fun:_Z11export_psiov
}
{
   Boost Python memort leak
   Memcheck:Leak
   fun:malloc
   fun:_PyObject_GC_Malloc
   fun:PyType_GenericAlloc
   fun:PyDict_Contains
   fun:PyType_Modified
   fun:PyObject_Call
   fun:PyObject_CallMethodObjArgs
   fun:PyObject_CallFunction
   fun:_ZN5boost6python6detail9dict_baseC2ERKNS0_3api6objectE
   fun:_ZN5boost6python4dictC1INS0_6handleI7_objectEEEERKT_
   fun:_ZN5boost6python7objects10class_base18make_method_staticEPKc
   fun:_Z11export_psiov
}
{
   Boost Python memort leak
   Memcheck:Leak
   fun:malloc
   fun:_PyObject_GC_Malloc
   fun:PyType_GenericAlloc
   fun:PyDict_Contains
   fun:PyType_Modified
   fun:PyObject_Call
   fun:PyObject_CallMethodObjArgs
   fun:PyObject_CallFunction
   fun:_ZN5boost6python6detail9dict_baseC2ERKNS0_3api6objectE
   fun:_ZN5boost6python4dictC1INS0_6handleI7_objectEEEERKT_
   fun:_ZN5boost6python7objects10class_base18make_method_staticEPKc
   fun:_Z11export_psiov
}
{
   Boost Python memort leak
   Memcheck:Leak
   fun:malloc
   fun:_PyObject_GC_Malloc
   fun:_PyObject_GC_New
   fun:PyDict_New
   fun:PyString_InternInPlace
   fun:PyString_InternFromString
   fun:_PyObject_SlotCompare
   fun:PyType_Ready
   fun:PyType_Ready
   fun:_Py_ReadyTypes
   fun:Py_InitializeEx
   fun:_ZN3psi6Python3runEP7__sFILE
}
{
   Boost Python memort leak
   Memcheck:Leak
   fun:malloc
   fun:_PyObject_GC_Malloc
   fun:_PyObject_GC_New
   fun:PyDict_New
   fun:PyErr_NewException
   fun:initzipimport
   fun:_PyImport_FixupExtension
   fun:_PyImport_FixupExtension
   fun:PyImport_ReloadModule
   fun:PyImport_ReloadModule
   fun:PyImport_ImportModuleLevel
   fun:_PyBuiltin_Init
}
{
   Boost Python memort leak
   Memcheck:Leak
   fun:malloc
   fun:_PyObject_GC_Malloc
   fun:_PyObject_GC_New
   fun:PyDict_New
   fun:_PyWarnings_Init
   fun:Py_InitializeEx
   fun:_ZN3psi6Python3runEP7__sFILE
   fun:main
}
{
   Boost Python memort leak
   Memcheck:Leak
   fun:malloc
   fun:_PyObject_GC_Malloc
   fun:_PyObject_GC_New
   fun:PyDict_New
   fun:initposix
   fun:_PyImport_FixupExtension
   fun:_PyImport_FixupExtension
   fun:PyImport_ReloadModule
   fun:PyImport_ReloadModule
   fun:PyImport_ImportModuleLevel
   fun:_PyBuiltin_Init
   fun:PyObject_Call
}
{
   Boost Python memort leak
   Memcheck:Leak
   fun:malloc
   fun:_PyObject_GC_Malloc
   fun:_PyObject_GC_New
   fun:PyDict_New
   fun:PyType_Ready
   fun:init_sre
   fun:_PyImport_FixupExtension
   fun:_PyImport_FixupExtension
   fun:PyImport_ReloadModule
   fun:PyImport_ReloadModule
   fun:PyImport_ImportModuleLevel
   fun:_PyBuiltin_Init
}
{
   Boost Python memort leak
   Memcheck:Leak
   fun:malloc
   fun:_PyObject_GC_Malloc
   fun:_PyObject_GC_New
   fun:PyDict_New
   fun:PyType_Ready
   fun:init_sre
   fun:_PyImport_FixupExtension
   fun:_PyImport_FixupExtension
   fun:PyImport_ReloadModule
   fun:PyImport_ReloadModule
   fun:PyImport_ImportModuleLevel
   fun:_PyBuiltin_Init
}
{
   Boost Python memort leak
   Memcheck:Leak
   fun:malloc
   fun:_PyObject_GC_Malloc
   fun:_PyObject_GC_New
   fun:PyDict_New
   fun:PyType_Ready
   fun:init_sre
   fun:_PyImport_FixupExtension
   fun:_PyImport_FixupExtension
   fun:PyImport_ReloadModule
   fun:PyImport_ReloadModule
   fun:PyImport_ImportModuleLevel
   fun:_PyBuiltin_Init
}
{
   Boost Python memort leak
   Memcheck:Leak
   fun:malloc
   fun:_PyObject_GC_Malloc
   fun:_PyObject_GC_New
   fun:PyDict_New
   fun:PySymtable_Build
   fun:PyAST_Compile
   fun:PyImport_ExecCodeModuleEx
   fun:PyImport_ReloadModule
   fun:PyImport_ReloadModule
   fun:PyImport_ImportModuleLevel
   fun:_PyBuiltin_Init
   fun:PyEval_EvalFrameEx
}
{
   Boost Python memort leak
   Memcheck:Leak
   fun:malloc
   fun:_PyObject_GC_Malloc
   fun:_PyObject_GC_New
   fun:PyDict_New
   fun:PySymtable_Free
   fun:PySymtable_Build
   fun:PyAST_Compile
   fun:PyImport_ExecCodeModuleEx
   fun:PyImport_ReloadModule
   fun:PyImport_ReloadModule
   fun:PyImport_ImportModuleLevel
   fun:_PyBuiltin_Init
}
{
   Boost Python memort leak
   Memcheck:Leak
   fun:malloc
   fun:_PyObject_GC_Malloc
   fun:_PyObject_GC_New
   fun:PyDict_New
   fun:PySymtable_Free
   fun:PySymtable_Build
   fun:PyAST_Compile
   fun:PyImport_ExecCodeModuleEx
   fun:PyImport_ReloadModule
   fun:PyImport_ReloadModule
   fun:PyImport_ImportModuleLevel
   fun:_PyBuiltin_Init
}
{
   Boost Python memort leak
   Memcheck:Leak
   fun:malloc
   fun:_PyObject_GC_Malloc
   fun:_PyObject_GC_New
   fun:PyDict_New
   fun:PySymtable_Free
   fun:PySymtable_Free
   fun:PySymtable_Build
   fun:PyAST_Compile
   fun:PyImport_ExecCodeModuleEx
   fun:PyImport_ReloadModule
   fun:PyImport_ReloadModule
   fun:PyImport_ImportModuleLevel
}
{
   Boost Python memort leak
   Memcheck:Leak
   fun:malloc
   fun:_PyObject_GC_Malloc
   fun:_PyObject_GC_New
   fun:PyDict_New
   fun:PySymtable_Free
   fun:PySymtable_Free
   fun:PySymtable_Build
   fun:PyAST_Compile
   fun:PyImport_ExecCodeModuleEx
   fun:PyImport_ReloadModule
   fun:PyImport_ReloadModule
   fun:PyImport_ImportModuleLevel
}
{
   Boost Python memort leak
   Memcheck:Leak
   fun:malloc
   fun:_PyObject_GC_Malloc
   fun:_PyObject_GC_New
   fun:PyDict_New
   fun:PySymtable_Free
   fun:PySymtable_Free
   fun:PySymtable_Build
   fun:PyAST_Compile
   fun:PyImport_ExecCodeModuleEx
   fun:PyImport_ReloadModule
   fun:PyImport_ReloadModule
   fun:PyImport_ImportModuleLevel
}
{
   Boost Python memort leak
   Memcheck:Leak
   fun:malloc
   fun:_PyObject_GC_Malloc
   fun:_PyObject_GC_New
   fun:PyDict_New
   fun:PySymtable_Free
   fun:PySymtable_Free
   fun:PySymtable_Build
   fun:PyAST_Compile
   fun:PyImport_ExecCodeModuleEx
   fun:PyImport_ReloadModule
   fun:PyImport_ReloadModule
   fun:PyImport_ImportModuleLevel
}
{
   Boost Python memort leak
   Memcheck:Leak
   fun:malloc
   fun:_PyObject_GC_Malloc
   fun:_PyObject_GC_New
   fun:PyDict_New
   fun:PySymtable_Free
   fun:PySymtable_Free
   fun:PySymtable_Build
   fun:PyAST_Compile
   fun:PyImport_ExecCodeModuleEx
   fun:PyImport_ReloadModule
   fun:PyImport_ReloadModule
   fun:PyImport_ImportModuleLevel
}
{
   Boost Python memort leak
   Memcheck:Leak
   fun:malloc
   fun:_PyObject_GC_Malloc
   fun:_PyObject_GC_New
   fun:PyDict_New
   fun:PySymtable_Free
   fun:PySymtable_Free
   fun:PySymtable_Build
   fun:PyAST_Compile
   fun:PyImport_ExecCodeModuleEx
   fun:PyImport_ReloadModule
   fun:PyImport_ReloadModule
   fun:PyImport_ImportModuleLevel
}
{
   Boost Python memort leak
   Memcheck:Leak
   fun:malloc
   fun:_PyObject_GC_Malloc
   fun:_PyObject_GC_New
   fun:PyDict_New
   fun:PySymtable_Free
   fun:PySymtable_Free
   fun:PySymtable_Free
   fun:PySymtable_Build
   fun:PyAST_Compile
   fun:PyImport_ExecCodeModuleEx
   fun:PyImport_ReloadModule
   fun:PyImport_ReloadModule
}
{
   Boost Python memort leak
   Memcheck:Leak
   fun:malloc
   fun:_PyObject_GC_Malloc
   fun:PyType_GenericAlloc
   fun:PyDict_Contains
   fun:PyType_Modified
   fun:PyObject_Call
   fun:PyObject_CallMethodObjArgs
   fun:PyObject_CallFunction
   fun:_ZN5boost6python6detail9dict_baseC2ERKNS0_3api6objectE
   fun:_ZN5boost6python4dictC1INS0_6handleI7_objectEEEERKT_
   fun:_ZN5boost6python7objects10class_base18make_method_staticEPKc
   fun:_Z12export_mintsv
}
{
   Boost Python memort leak
   Memcheck:Leak
   fun:malloc
   fun:_PyObject_GC_Malloc
   fun:PyType_GenericAlloc
   fun:PyDict_Contains
   fun:PyType_Modified
   fun:PyObject_Call
   fun:PyObject_CallMethodObjArgs
   fun:PyObject_CallFunction
   fun:_ZN5boost6python6detail9dict_baseC2ERKNS0_3api6objectE
   fun:_ZN5boost6python4dictC1INS0_6handleI7_objectEEEERKT_
   fun:_ZN5boost6python7objects10class_base18make_method_staticEPKc
   fun:_Z17export_functionalv
}
{
   Boost Python memort leak
   Memcheck:Leak
   fun:malloc
   fun:_PyObject_GC_Malloc
   fun:PyType_GenericAlloc
   fun:PyDict_Contains
   fun:PyType_Modified
   fun:PyObject_Call
   fun:PyObject_CallMethodObjArgs
   fun:PyObject_CallFunction
   fun:_ZN5boost6python6detail9dict_baseC2ERKNS0_3api6objectE
   fun:_ZN5boost6python4dictC1INS0_6handleI7_objectEEEERKT_
   fun:_ZN5boost6python7objects10class_base18make_method_staticEPKc
   fun:_Z17export_functionalv
}
{
   Boost Python memort leak
   Memcheck:Leak
   fun:malloc
   fun:_PyObject_GC_Malloc
   fun:_PyObject_GC_New
   fun:PyDict_New
   fun:PyType_Ready
   fun:initthread
   fun:_PyImport_FixupExtension
   fun:_PyImport_FixupExtension
   fun:PyImport_ReloadModule
   fun:PyImport_ReloadModule
   fun:PyImport_ImportModuleLevel
   fun:_PyBuiltin_Init
}
{
   Boost Python memort leak
   Memcheck:Leak
   fun:malloc
   fun:PyString_FromStringAndSize
   fun:PyMarshal_ReadLongFromFile
   fun:PyMarshal_ReadLongFromFile
   fun:PyMarshal_ReadLongFromFile
   fun:PyMarshal_ReadLongFromFile
   fun:PyMarshal_ReadLongFromFile
   fun:PyMarshal_ReadObjectFromString
   fun:PyMarshal_ReadLastObjectFromFile
   fun:PyImport_AppendInittab
   fun:PyImport_ExecCodeModuleEx
   fun:PyImport_ReloadModule
}
{
   Boost Python memort leak
   Memcheck:Leak
   fun:malloc
   fun:_PyObject_GC_Malloc
   fun:_PyObject_GC_NewVar
   fun:PyFrame_New
   fun:PyEval_EvalCodeEx
   fun:PyClassMethod_New
   fun:PyObject_Call
   fun:PyInstance_New
   fun:PyObject_Call
   fun:PyType_IsSubtype
   fun:PyEval_EvalFrameEx
   fun:PyEval_EvalCodeEx
}
{
   Boost Python memort leak
   Memcheck:Leak
   fun:malloc
   fun:_PyObject_GC_Malloc
   fun:_PyObject_GC_NewVar
   fun:PyFrame_New
   fun:PyEval_EvalCodeEx
   fun:PyClassMethod_New
   fun:PyObject_Call
   fun:PyInstance_New
   fun:PyObject_Call
   fun:PyObject_CallFunctionObjArgs
   fun:PyEval_EvalFrameEx
   fun:PyGen_NeedsFinalizing
}
{
   Boost Python memort leak
   Memcheck:Leak
   fun:malloc
   fun:_PyObject_GC_Malloc
   fun:_PyObject_GC_NewVar
   fun:PyFrame_New
   fun:PyEval_EvalCode
   fun:PyEval_EvalFrameEx
   fun:PyEval_EvalCodeEx
   fun:PyEval_EvalCode
   fun:PyImport_ExecCodeModuleEx
   fun:PyImport_ExecCodeModuleEx
   fun:PyImport_ReloadModule
   fun:PyImport_ReloadModule
}
{
   Boost Python memort leak
   Memcheck:Leak
   fun:malloc
   fun:_PyObject_GC_Malloc
   fun:_PyObject_GC_NewVar
   fun:PyFrame_New
   fun:PyEval_EvalCodeEx
   fun:PyEval_EvalCode
   fun:PyEval_EvalFrameEx
   fun:PyEval_EvalCodeEx
   fun:PyClassMethod_New
   fun:PyObject_Call
   fun:_PyObject_SlotCompare
   fun:PyType_Modified
}
{
   Boost Python memort leak
   Memcheck:Leak
   fun:malloc
   fun:_PyObject_GC_Malloc
   fun:_PyObject_GC_NewVar
   fun:PyFrame_New
   fun:PyEval_EvalCodeEx
   fun:PyClassMethod_New
   fun:PyObject_Call
   fun:PyInstance_New
   fun:PyObject_Call
   fun:PyObject_CallFunctionObjArgs
   fun:PyEval_EvalFrameEx
   fun:PyGen_NeedsFinalizing
}
{
   Boost Python memort leak
   Memcheck:Leak
   fun:malloc
   fun:_PyObject_GC_Malloc
   fun:_PyObject_GC_NewVar
   fun:PyFrame_New
   fun:PyEval_EvalCodeEx
   fun:PyClassMethod_New
   fun:PyObject_Call
   fun:PyInstance_New
   fun:PyObject_Call
   fun:PyObject_CallFunctionObjArgs
   fun:PyObject_IsSubclass
   fun:_PyBuiltin_Init
}
{
   Boost Python memort leak
   Memcheck:Leak
   fun:malloc
   fun:_PyObject_GC_Malloc
   fun:_PyObject_GC_NewVar
   fun:PyFrame_New
   fun:PyEval_EvalCodeEx
   fun:PyClassMethod_New
   fun:PyObject_Call
   fun:PyInstance_New
   fun:PyObject_Call
   fun:_PyObject_SlotCompare
   fun:PyObject_GetIter
   fun:PyEval_EvalFrameEx
}
{
   Boost Python memort leak
   Memcheck:Leak
   fun:malloc
   fun:_PyObject_GC_Malloc
   fun:_PyObject_GC_NewVar
   fun:PyFrame_New
   fun:PyEval_EvalCodeEx
   fun:PyClassMethod_New
   fun:PyObject_Call
   fun:_PyObject_SlotCompare
   fun:PyType_Modified
   fun:PyObject_Call
   fun:PyObject_CallFunctionObjArgs
   fun:PyEval_EvalFrameEx
}
{
   Boost Python memort leak
   Memcheck:Leak
   fun:malloc
   fun:_PyObject_GC_Malloc
   fun:_PyObject_GC_NewVar
   fun:PyFrame_New
   fun:PyEval_EvalCodeEx
   fun:PyClassMethod_New
   fun:PyObject_Call
   fun:_PyObject_SlotCompare
   fun:PyType_Modified
   fun:PyObject_Call
   fun:PyEval_EvalFrameEx
   fun:PyEval_EvalCode
}
{
   Boost Python memort leak
   Memcheck:Leak
   fun:malloc
   fun:_PyObject_GC_Malloc
   fun:_PyObject_GC_New
   fun:PyDict_New
   fun:PyDict_Copy
   fun:PyType_Modified
   fun:PyType_Modified
   fun:PyObject_Call
   fun:PyObject_CallFunctionObjArgs
   fun:PyEval_EvalFrameEx
   fun:PyEval_EvalCodeEx
   fun:PyEval_EvalCode
}
{
   Boost Python memort leak
   Memcheck:Leak
   fun:malloc
   fun:_PyDict_Contains
   fun:_PyObject_GenericSetAttrWithDict
   fun:PyType_Modified
   fun:PyObject_SetAttr
   fun:_ZN5boost6python7objects8function16add_to_namespaceERKNS0_3api6objectEPKcS6_S8_
   fun:_ZN5boost6python6class_IN3psi6OEPropENS_10shared_ptrIS3_EENS0_6detail13not_specifiedES7_E8def_implIS3_MS3_FvRKSsENS6_10def_helperIPKcS7_S7_S7_EEEEvPT_SG_T0_RKT1_z
   fun:_Z13export_oepropv
   fun:_Z18init_module_PsiModv
   fun:_ZN5boost6python21handle_exception_implENS_9function0IvEE
   fun:_ZN5boost6python16handle_exceptionIPFvvEEEbT_
   fun:_ZN5boost6python6detail11init_moduleEPKcPFvvE
}
{
   Boost Python memort leak
   Memcheck:Leak
   fun:malloc
   fun:_PyDict_Contains
   fun:_PyObject_GenericSetAttrWithDict
   fun:PyType_Modified
   fun:PyObject_SetAttr
   fun:_ZN5boost6python7objects8function16add_to_namespaceERKNS0_3api6objectEPKcS6_S8_
   fun:_ZN5boost6python6class_IN3psi8GridPropENS_10shared_ptrIS3_EENS0_6detail13not_specifiedES7_E8def_implIS3_MS3_FvRKSsENS6_10def_helperIPKcS7_S7_S7_EEEEvPT_SG_T0_RKT1_z
   fun:_Z13export_oepropv
   fun:_Z18init_module_PsiModv
   fun:_ZN5boost6python21handle_exception_implENS_9function0IvEE
   fun:_ZN5boost6python16handle_exceptionIPFvvEEEbT_
   fun:_ZN5boost6python6detail11init_moduleEPKcPFvvE
}
{
   Boost Python memort leak
   Memcheck:Leak
   fun:malloc
   fun:_PyDict_Contains
   fun:_PyObject_GenericSetAttrWithDict
   fun:PyType_Modified
   fun:PyObject_SetAttr
   fun:_ZN5boost6python7objects8function16add_to_namespaceERKNS0_3api6objectEPKcS6_S8_
   fun:_ZN5boost6python6class_ISt6vectorINS_10shared_ptrIN3psi6MatrixEEESaIS6_EENS0_6detail13not_specifiedESA_SA_E8def_implIS8_PFmRS8_ENS9_10def_helperIPKcSA_SA_SA_EEEEvPT_SI_T0_RKT1_z
   fun:_ZNK5boost6python14indexing_suiteISt6vectorINS_10shared_ptrIN3psi6MatrixEEESaIS6_EENS0_6detail29final_vector_derived_policiesIS8_Lb1EEELb1ELb0ES6_mS6_E5visitINS0_6class_IS8_NS9_13not_specifiedESF_SF_EEEEvRT_
   fun:_Z12export_mintsv
   fun:_Z18init_module_PsiModv
   fun:_ZN5boost6python21handle_exception_implENS_9function0IvEE
   fun:_ZN5boost6python16handle_exceptionIPFvvEEEbT_
}
{
   Boost Python memort leak
   Memcheck:Leak
   fun:malloc
   fun:_PyDict_Contains
   fun:_PyObject_GenericSetAttrWithDict
   fun:PyType_Modified
   fun:PyObject_SetAttr
   fun:_ZN5boost6python7objects8function16add_to_namespaceERKNS0_3api6objectEPKcS6_S8_
   fun:_ZN5boost6python6class_IN3psi6VectorENS_10shared_ptrIS3_EENS0_6detail13not_specifiedES7_E8def_implIS3_MS3_FdiENS6_10def_helperIPKcS7_S7_S7_EEEEvPT_SE_T0_RKT1_z
   fun:_Z12export_mintsv
   fun:_Z18init_module_PsiModv
   fun:_ZN5boost6python21handle_exception_implENS_9function0IvEE
   fun:_ZN5boost6python16handle_exceptionIPFvvEEEbT_
   fun:_ZN5boost6python6detail11init_moduleEPKcPFvvE
}
{
   Boost Python memort leak
   Memcheck:Leak
   fun:malloc
   fun:_PyDict_Contains
   fun:_PyObject_GenericSetAttrWithDict
   fun:PyType_Modified
   fun:PyObject_SetAttr
   fun:_ZN5boost6python7objects8function16add_to_namespaceERKNS0_3api6objectEPKcS6_S8_
   fun:_ZN5boost6python6class_IN3psi9IntVectorENS_10shared_ptrIS3_EENS0_6detail13not_specifiedES7_E8def_implIS3_MS3_FiiiENS6_10def_helperIPKcS7_S7_S7_EEEEvPT_SE_T0_RKT1_z
   fun:_Z12export_mintsv
   fun:_Z18init_module_PsiModv
   fun:_ZN5boost6python21handle_exception_implENS_9function0IvEE
   fun:_ZN5boost6python16handle_exceptionIPFvvEEEbT_
   fun:_ZN5boost6python6detail11init_moduleEPKcPFvvE
}
{
   Boost Python memort leak
   Memcheck:Leak
   fun:malloc
   fun:_PyDict_Contains
   fun:_PyObject_GenericSetAttrWithDict
   fun:PyType_Modified
   fun:PyObject_SetAttr
   fun:_ZN5boost6python7objects8function16add_to_namespaceERKNS0_3api6objectEPKcS6_S8_
   fun:_ZN5boost6python6class_IN3psi13FittingMetricENS_10shared_ptrIS3_EENS0_6detail13not_specifiedES7_E8def_implIS3_MS3_KFSsvENS6_10def_helperIPKcS7_S7_S7_EEEEvPT_SE_T0_RKT1_z
   fun:_Z12export_mintsv
   fun:_Z18init_module_PsiModv
   fun:_ZN5boost6python21handle_exception_implENS_9function0IvEE
   fun:_ZN5boost6python16handle_exceptionIPFvvEEEbT_
   fun:_ZN5boost6python6detail11init_moduleEPKcPFvvE
}
{
   Boost Python memort leak
   Memcheck:Leak
   fun:malloc
   fun:_PyDict_Contains
   fun:_PyObject_GenericSetAttrWithDict
   fun:PyType_Modified
   fun:PyObject_SetAttr
   fun:_ZN5boost6python7objects8function16add_to_namespaceERKNS0_3api6objectEPKcS6_S8_
   fun:_ZN5boost6python6class_IN3psi11PseudoTrialENS_10shared_ptrIS3_EENS0_6detail13not_specifiedES7_E8def_implIS3_MS3_KFNS4_INS2_6MatrixEEEvENS6_10def_helperIPKcS7_S7_S7_EEEEvPT_SG_T0_RKT1_z
   fun:_Z12export_mintsv
   fun:_Z18init_module_PsiModv
   fun:_ZN5boost6python21handle_exception_implENS_9function0IvEE
   fun:_ZN5boost6python16handle_exceptionIPFvvEEEbT_
   fun:_ZN5boost6python6detail11init_moduleEPKcPFvvE
}
{
   Boost Python memort leak
   Memcheck:Leak
   fun:malloc
   fun:_PyDict_Contains
   fun:_PyObject_GenericSetAttrWithDict
   fun:PyType_Modified
   fun:PyObject_SetAttr
   fun:_ZN5boost6python7objects8function16add_to_namespaceERKNS0_3api6objectEPKcS6_S8_
   fun:_ZN5boost6python6class_IN3psi7Vector3ENS0_6detail13not_specifiedES5_S5_E8def_implIS3_PFP7_objectNS0_14back_referenceIRS3_EERKS3_ENS4_10def_helperIPKcS5_S5_S5_EEEEvPT_SJ_T0_RKT1_z
   fun:_Z12export_mintsv
   fun:_Z18init_module_PsiModv
   fun:_ZN5boost6python21handle_exception_implENS_9function0IvEE
   fun:_ZN5boost6python16handle_exceptionIPFvvEEEbT_
   fun:_ZN5boost6python6detail11init_moduleEPKcPFvvE
}
{
   Boost Python memort leak
   Memcheck:Leak
   fun:malloc
   fun:_PyDict_Contains
   fun:_PyObject_GenericSetAttrWithDict
   fun:PyType_Modified
   fun:PyObject_SetAttr
   fun:_ZN5boost6python7objects8function16add_to_namespaceERKNS0_3api6objectEPKcS6_S8_
   fun:_ZN5boost6python6class_IN3psi17SymmetryOperationENS0_6detail13not_specifiedES5_S5_E8def_implIS3_MS3_KFdvENS4_10def_helperIPKcS5_S5_S5_EEEEvPT_SC_T0_RKT1_z
   fun:_Z12export_mintsv
   fun:_Z18init_module_PsiModv
   fun:_ZN5boost6python21handle_exception_implENS_9function0IvEE
   fun:_ZN5boost6python16handle_exceptionIPFvvEEEbT_
   fun:_ZN5boost6python6detail11init_moduleEPKcPFvvE
}
{
   Boost Python memort leak
   Memcheck:Leak
   fun:malloc
   fun:_PyDict_Contains
   fun:_PyObject_GenericSetAttrWithDict
   fun:PyType_Modified
   fun:PyObject_SetAttr
   fun:_ZN5boost6python7objects8function16add_to_namespaceERKNS0_3api6objectEPKcS6_S8_
   fun:_ZN5boost6python6class_IN3psi10PointGroupENS_10shared_ptrIS3_EENS0_6detail13not_specifiedES7_E8def_implIS3_MS3_KFPKcvENS6_10def_helperISB_S7_S7_S7_EEEEvPT_SB_T0_RKT1_z
   fun:_Z12export_mintsv
   fun:_Z18init_module_PsiModv
   fun:_ZN5boost6python21handle_exception_implENS_9function0IvEE
   fun:_ZN5boost6python16handle_exceptionIPFvvEEEbT_
   fun:_ZN5boost6python6detail11init_moduleEPKcPFvvE
}
{
   Boost Python memort leak
   Memcheck:Leak
   fun:malloc
   fun:_PyDict_Contains
   fun:_PyObject_GenericSetAttrWithDict
   fun:PyType_Modified
   fun:PyObject_SetAttr
   fun:_ZN5boost6python7objects8function16add_to_namespaceERKNS0_3api6objectEPKcS6_S8_
   fun:_ZN5boost6python6class_IN3psi17ExternalPotentialENS_10shared_ptrIS3_EENS_12noncopyable_11noncopyableENS0_6detail13not_specifiedEE8def_implIS3_MS3_FvRKSsENS8_10def_helperIPKcS9_S9_S9_EEEEvPT_SI_T0_RKT1_z
   fun:_Z12export_mintsv
   fun:_Z18init_module_PsiModv
   fun:_ZN5boost6python21handle_exception_implENS_9function0IvEE
   fun:_ZN5boost6python16handle_exceptionIPFvvEEEbT_
   fun:_ZN5boost6python6detail11init_moduleEPKcPFvvE
}
{
   Boost Python memort leak
   Memcheck:Leak
   fun:malloc
   fun:_PyDict_Contains
   fun:_PyObject_GenericSetAttrWithDict
   fun:PyType_Modified
   fun:PyObject_SetAttr
   fun:_ZN5boost6python7objects8function16add_to_namespaceERKNS0_3api6objectEPKcS6_S8_
   fun:_ZN5boost6python6class_IN3psi7Process11EnvironmentENS0_6detail13not_specifiedES6_S6_E8def_implIS4_MS4_FSsRKSsENS5_10def_helperIPKcS6_S6_S6_EEEEvPT_SF_T0_RKT1_z
   fun:_Z18init_module_PsiModv
   fun:_ZN5boost6python21handle_exception_implENS_9function0IvEE
   fun:_ZN5boost6python16handle_exceptionIPFvvEEEbT_
   fun:_ZN5boost6python6detail11init_moduleEPKcPFvvE
   fun:_PyImport_FixupExtension
}
{
   Boost Python memort leak
   Memcheck:Leak
   fun:malloc
   fun:_PyDict_Contains
   fun:_PyObject_GenericSetAttrWithDict
   fun:PyType_Modified
   fun:PyObject_SetAttr
   fun:_ZN5boost6python7objects8function16add_to_namespaceERKNS0_3api6objectEPKcS6_S8_
   fun:_ZN5boost6python6class_IN3psi7Process9ArgumentsENS0_6detail13not_specifiedES6_S6_E8def_implIS4_MS4_FSsiENS5_10def_helperIPKcS6_S6_S6_EEEEvPT_SD_T0_RKT1_z
   fun:_Z18init_module_PsiModv
   fun:_ZN5boost6python21handle_exception_implENS_9function0IvEE
   fun:_ZN5boost6python16handle_exceptionIPFvvEEEbT_
   fun:_ZN5boost6python6detail11init_moduleEPKcPFvvE
   fun:_PyImport_FixupExtension
}
{
   Boost Python memort leak
   Memcheck:Leak
   fun:malloc
   fun:_PyObject_GC_Malloc
   fun:_PyObject_GC_New
   fun:PyDict_New
   fun:PyDict_Copy
   fun:PyType_Modified
   fun:PyType_Modified
   fun:PyObject_Call
   fun:PyEval_CallObjectWithKeywords
   fun:PyEval_CallFunction
   fun:_ZN5boost6python4callINS0_3api6objectEPKcNS0_6handleI7_objectEENS0_4dictEEENS0_6detail10returnableIT_E4typeEPS7_RKT0_RKT1_RKT2_PNS_4typeISC_EE
   fun:_ZN5boost6python7objects10class_baseC2EPKcmPKNS0_9type_infoES4_
}
{
   Boost Python memort leak
   Memcheck:Leak
   fun:malloc
   fun:_PyObject_GC_Malloc
   fun:_PyObject_GC_NewVar
   fun:PyFrame_New
   fun:PyEval_EvalCodeEx
   fun:PyClassMethod_New
   fun:PyObject_Call
   fun:PyInstance_New
   fun:PyObject_Call
   fun:_PyObject_SlotCompare
   fun:PyType_Modified
   fun:PyObject_Call
}
{
   Boost Python memort leak
   Memcheck:Leak
   fun:malloc
   fun:_PyObject_GC_Malloc
   fun:_PyObject_GC_NewVar
   fun:PyFrame_New
   fun:PyEval_EvalCode
   fun:PyEval_EvalFrameEx
   fun:PyEval_EvalCodeEx
   fun:PyClassMethod_New
   fun:PyObject_Call
   fun:PyInstance_New
   fun:PyObject_Call
   fun:PyObject_CallFunctionObjArgs
}
{
   Boost Python memort leak
   Memcheck:Leak
   fun:malloc
   fun:_PyDict_Contains
   fun:_PyObject_GenericSetAttrWithDict
   fun:PyType_Modified
   fun:PyObject_SetAttr
   fun:_ZN5boost6python7objects8function16add_to_namespaceERKNS0_3api6objectEPKcS6_S8_
   fun:_ZN5boost6python6class_IN3psi6MatrixENS_10shared_ptrIS3_EENS0_6detail13not_specifiedES7_E8def_implIS3_MS3_FvRKS5_ENS6_10def_helperIPKcS7_S7_S7_EEEEvPT_SG_T0_RKT1_z
   fun:_Z12export_mintsv
   fun:_Z18init_module_PsiModv
   fun:_ZN5boost6python21handle_exception_implENS_9function0IvEE
   fun:_ZN5boost6python16handle_exceptionIPFvvEEEbT_
   fun:_ZN5boost6python6detail11init_moduleEPKcPFvvE
}
{
   Boost Python memort leak
   Memcheck:Leak
   fun:malloc
   fun:_PyDict_Contains
   fun:_PyObject_GenericSetAttrWithDict
   fun:PyType_Modified
   fun:PyObject_SetAttr
   fun:_ZN5boost6python7objects8function16add_to_namespaceERKNS0_3api6objectEPKcS6_S8_
   fun:_ZN5boost6python6class_IN3psi11MintsHelperENS_10shared_ptrIS3_EENS0_6detail13not_specifiedES7_E8def_implIS3_MS3_FSt6vectorINS4_INS2_6MatrixEEESaISC_EEvENS6_10def_helperIPKcS7_S7_S7_EEEEvPT_SJ_T0_RKT1_z
   fun:_Z12export_mintsv
   fun:_Z18init_module_PsiModv
   fun:_ZN5boost6python21handle_exception_implENS_9function0IvEE
   fun:_ZN5boost6python16handle_exceptionIPFvvEEEbT_
   fun:_ZN5boost6python6detail11init_moduleEPKcPFvvE
}
{
   Boost Python memort leak
   Memcheck:Leak
   fun:malloc
   fun:_PyObject_GC_Malloc
   fun:_PyObject_GC_New
   fun:PyDict_New
   fun:_PyObject_GenericSetAttrWithDict
   fun:PyObject_SetAttr
   fun:PyEval_EvalFrameEx
   fun:PyEval_EvalCode
   fun:PyEval_EvalFrameEx
   fun:PyEval_EvalCodeEx
   fun:PyEval_EvalCode
   fun:PyEval_EvalFrameEx
}
{
   Boost Python memort leak
   Memcheck:Leak
   fun:malloc
   fun:_PyDict_Contains
   fun:PyString_InternInPlace
   fun:PyString_FromStringAndSize
   fun:_PyString_Eq
   fun:_PyString_Eq
   fun:PyEval_EvalFrameEx
   fun:PyEval_EvalCode
   fun:PyEval_EvalFrameEx
   fun:PyEval_EvalCodeEx
   fun:PyEval_EvalCode
   fun:PyImport_ExecCodeModuleEx
}
